
main.elf:     file format elf32-littleriscv


Disassembly of section .init:

00000000 <InterruptVector>:
	void InterruptVector()         __attribute__((naked)) __attribute((section(".init"))) __attribute((weak,alias("InterruptVectorDefault"))) __attribute((naked));
	void InterruptVectorDefault()  __attribute__((naked)) __attribute((section(".init"))) __attribute((naked));
	void InterruptVectorDefault( void )
	{
		#if !defined(FUNCONF_TINYVECTOR) || !FUNCONF_TINYVECTOR
			asm volatile( DEFAULT_INTERRUPT_VECTOR_CONTENTS );
   0:	3160006f          	j	316 <handle_reset>
   4:	00000000          	.word	0x00000000
   8:	00000392          	.word	0x00000392
   c:	00000390          	.word	0x00000390
  10:	00000000          	.word	0x00000000
  14:	00000390          	.word	0x00000390
	...
  20:	00000390          	.word	0x00000390
  24:	00000390          	.word	0x00000390
	...
  30:	0000117e          	.word	0x0000117e
  34:	00000000          	.word	0x00000000
  38:	00000390          	.word	0x00000390
  3c:	00000000          	.word	0x00000000
  40:	00000390          	.word	0x00000390
  44:	00000390          	.word	0x00000390
  48:	00000390          	.word	0x00000390
  4c:	00000390          	.word	0x00000390
  50:	00000390          	.word	0x00000390
  54:	00000390          	.word	0x00000390
  58:	00000390          	.word	0x00000390
  5c:	00000390          	.word	0x00000390
  60:	00000390          	.word	0x00000390
  64:	00000390          	.word	0x00000390
  68:	00000390          	.word	0x00000390
  6c:	00000390          	.word	0x00000390
  70:	00000390          	.word	0x00000390
  74:	00000390          	.word	0x00000390
  78:	00000390          	.word	0x00000390
  7c:	00000390          	.word	0x00000390
  80:	00000390          	.word	0x00000390
  84:	00000390          	.word	0x00000390
  88:	00000390          	.word	0x00000390
  8c:	00000390          	.word	0x00000390
  90:	00000390          	.word	0x00000390
  94:	00000390          	.word	0x00000390
  98:	00000390          	.word	0x00000390
  9c:	00000390          	.word	0x00000390
  a0:	00000390          	.word	0x00000390
  a4:	00000390          	.word	0x00000390
  a8:	00000390          	.word	0x00000390
  ac:	00000390          	.word	0x00000390
  b0:	00000390          	.word	0x00000390
  b4:	000003a0          	.word	0x000003a0
  b8:	00000390          	.word	0x00000390
  bc:	00000390          	.word	0x00000390
  c0:	00000390          	.word	0x00000390
  c4:	00000390          	.word	0x00000390
  c8:	00000390          	.word	0x00000390
  cc:	00000390          	.word	0x00000390
  d0:	00000390          	.word	0x00000390
  d4:	00000390          	.word	0x00000390
  d8:	00000390          	.word	0x00000390
  dc:	0000                	.insn	2, 0x
	...

Disassembly of section .text:

000000e0 <mini_pad>:
	if(pad_to == 0) pad_to = len;
      e0:	c699                	beqz	a3,ee <mini_pad+0xe>
	int overflow = 0;
      e2:	4801                	li	a6,0
	if(len > pad_to) {
      e4:	00b6d763          	bge	a3,a1,f2 <mini_pad+0x12>
		len = pad_to;
      e8:	85b6                	mv	a1,a3
		overflow = 1;
      ea:	4805                	li	a6,1
      ec:	a019                	j	f2 <mini_pad+0x12>
	int overflow = 0;
      ee:	4801                	li	a6,0
	if(pad_to == 0) pad_to = len;
      f0:	86ae                	mv	a3,a1
	for(i = pad_to - len; i > 0; i --) {
      f2:	8e8d                	sub	a3,a3,a1
	char * pbuffer = buffer;
      f4:	87ba                	mv	a5,a4
      f6:	00e68333          	add	t1,a3,a4
	for(i = pad_to - len; i > 0; i --) {
      fa:	40f308b3          	sub	a7,t1,a5
      fe:	05104a63          	bgtz	a7,152 <mini_pad+0x72>
     102:	fff6c793          	not	a5,a3
     106:	87fd                	srai	a5,a5,0x1f
     108:	8efd                	and	a3,a3,a5
     10a:	96ba                	add	a3,a3,a4
     10c:	4781                	li	a5,0
	for(i = len; i > 0; i --) {
     10e:	40f58633          	sub	a2,a1,a5
     112:	00f688b3          	add	a7,a3,a5
     116:	04c04263          	bgtz	a2,15a <mini_pad+0x7a>
     11a:	fff5c793          	not	a5,a1
     11e:	87fd                	srai	a5,a5,0x1f
     120:	8dfd                	and	a1,a1,a5
     122:	95b6                	add	a1,a1,a3
	len = pbuffer - buffer;
     124:	40e58533          	sub	a0,a1,a4
	if(overflow) {
     128:	02080463          	beqz	a6,150 <mini_pad+0x70>
		for (i = 0; i < 3 && pbuffer > buffer; i ++) {
     12c:	02b77263          	bgeu	a4,a1,150 <mini_pad+0x70>
			*(pbuffer-- - 1) = '*';
     130:	02a00793          	li	a5,42
     134:	fef58fa3          	sb	a5,-1(a1)
     138:	fff58693          	addi	a3,a1,-1
		for (i = 0; i < 3 && pbuffer > buffer; i ++) {
     13c:	00d77a63          	bgeu	a4,a3,150 <mini_pad+0x70>
			*(pbuffer-- - 1) = '*';
     140:	fef58f23          	sb	a5,-2(a1)
     144:	ffe58693          	addi	a3,a1,-2
		for (i = 0; i < 3 && pbuffer > buffer; i ++) {
     148:	00d77463          	bgeu	a4,a3,150 <mini_pad+0x70>
			*(pbuffer-- - 1) = '*';
     14c:	fef58ea3          	sb	a5,-3(a1)
}
     150:	8082                	ret
		*(pbuffer++) = pad_char;
     152:	0785                	addi	a5,a5,1
     154:	fec78fa3          	sb	a2,-1(a5)
	for(i = pad_to - len; i > 0; i --) {
     158:	b74d                	j	fa <mini_pad+0x1a>
		*(pbuffer++) = *(ptr++);
     15a:	00f50633          	add	a2,a0,a5
     15e:	00064603          	lbu	a2,0(a2)
     162:	0785                	addi	a5,a5,1
     164:	00c88023          	sb	a2,0(a7)
	for(i = len; i > 0; i --) {
     168:	b75d                	j	10e <mini_pad+0x2e>

0000016a <_puts>:
{
     16a:	86aa                	mv	a3,a0
     16c:	852e                	mv	a0,a1
	if(!buf) return len;
     16e:	ce01                	beqz	a2,186 <_puts+0x1c>
	char * p0 = b->buffer;
     170:	00062883          	lw	a7,0(a2)
	for (i = 0; i < len; i++) {
     174:	4701                	li	a4,0
		if(b->pbuffer == b->buffer + b->buffer_len - 1) {
     176:	425c                	lw	a5,4(a2)
	for (i = 0; i < len; i++) {
     178:	00a74863          	blt	a4,a0,188 <_puts+0x1e>
	*(b->pbuffer) = 0;
     17c:	00078023          	sb	zero,0(a5)
	return b->pbuffer - p0;
     180:	4248                	lw	a0,4(a2)
     182:	41150533          	sub	a0,a0,a7
}
     186:	8082                	ret
		if(b->pbuffer == b->buffer + b->buffer_len - 1) {
     188:	00862803          	lw	a6,8(a2)
     18c:	420c                	lw	a1,0(a2)
     18e:	187d                	addi	a6,a6,-1
     190:	95c2                	add	a1,a1,a6
     192:	feb785e3          	beq	a5,a1,17c <_puts+0x12>
		*(b->pbuffer ++) = s[i];
     196:	00178593          	addi	a1,a5,1
     19a:	c24c                	sw	a1,4(a2)
     19c:	00e685b3          	add	a1,a3,a4
     1a0:	0005c583          	lbu	a1,0(a1)
	for (i = 0; i < len; i++) {
     1a4:	0705                	addi	a4,a4,1
		*(b->pbuffer ++) = s[i];
     1a6:	00b78023          	sb	a1,0(a5)
	for (i = 0; i < len; i++) {
     1aa:	b7f1                	j	176 <_puts+0xc>

000001ac <mini_itoa.part.0>:
	int	negative = 0;
     1ac:	4881                	li	a7,0
	if (value < 0 && !unsig) {
     1ae:	00055663          	bgez	a0,1ba <mini_itoa.part.0+0xe>
     1b2:	e681                	bnez	a3,1ba <mini_itoa.part.0+0xe>
		value = -value;
     1b4:	40a00533          	neg	a0,a0
		negative = 1;
     1b8:	4885                	li	a7,1
     1ba:	8a05                	andi	a2,a2,1
     1bc:	06100793          	li	a5,97
     1c0:	c219                	beqz	a2,1c6 <mini_itoa.part.0+0x1a>
     1c2:	04100793          	li	a5,65
	int	negative = 0;
     1c6:	883a                	mv	a6,a4
		*(pbuffer++) = (digit < 10 ? '0' + digit : (uppercase ? 'A' : 'a') + digit - 10);
     1c8:	4e25                	li	t3,9
     1ca:	ff678613          	addi	a2,a5,-10
		int digit = value % radix;
     1ce:	02b577b3          	remu	a5,a0,a1
     1d2:	832a                	mv	t1,a0
		*(pbuffer++) = (digit < 10 ? '0' + digit : (uppercase ? 'A' : 'a') + digit - 10);
     1d4:	0ff7f693          	zext.b	a3,a5
     1d8:	04fe6463          	bltu	t3,a5,220 <mini_itoa.part.0+0x74>
     1dc:	03068693          	addi	a3,a3,48
     1e0:	0ff6f693          	zext.b	a3,a3
     1e4:	00d80023          	sb	a3,0(a6)
     1e8:	00180793          	addi	a5,a6,1
		value /= radix;
     1ec:	02b55533          	divu	a0,a0,a1
	} while (value > 0);
     1f0:	02b37663          	bgeu	t1,a1,21c <mini_itoa.part.0+0x70>
	if (negative)
     1f4:	00088863          	beqz	a7,204 <mini_itoa.part.0+0x58>
		*(pbuffer++) = '-';
     1f8:	02d00693          	li	a3,45
     1fc:	00d78023          	sb	a3,0(a5)
     200:	00280793          	addi	a5,a6,2
	len = (pbuffer - buffer);
     204:	40e78533          	sub	a0,a5,a4
	for (i = 0; i < len / 2; i++) {
     208:	4609                	li	a2,2
	*(pbuffer) = '\0';
     20a:	00078023          	sb	zero,0(a5)
	for (i = 0; i < len / 2; i++) {
     20e:	4681                	li	a3,0
     210:	02c54633          	div	a2,a0,a2
     214:	17fd                	addi	a5,a5,-1
     216:	00c6c763          	blt	a3,a2,224 <mini_itoa.part.0+0x78>
}
     21a:	8082                	ret
		*(pbuffer++) = (digit < 10 ? '0' + digit : (uppercase ? 'A' : 'a') + digit - 10);
     21c:	883e                	mv	a6,a5
     21e:	bf45                	j	1ce <mini_itoa.part.0+0x22>
     220:	96b2                	add	a3,a3,a2
     222:	bf7d                	j	1e0 <mini_itoa.part.0+0x34>
		char j = buffer[i];
     224:	00d705b3          	add	a1,a4,a3
		buffer[i] = buffer[len-i-1];
     228:	0007c883          	lbu	a7,0(a5)
		char j = buffer[i];
     22c:	0005c803          	lbu	a6,0(a1)
	for (i = 0; i < len / 2; i++) {
     230:	0685                	addi	a3,a3,1
		buffer[i] = buffer[len-i-1];
     232:	01158023          	sb	a7,0(a1)
		buffer[len-i-1] = j;
     236:	01078023          	sb	a6,0(a5)
	for (i = 0; i < len / 2; i++) {
     23a:	bfe9                	j	214 <mini_itoa.part.0+0x68>

0000023c <USBFS_InternalFinishSetup>:

void USBFS_InternalFinishSetup()
{

#if FUSB_EP1_MODE
	USBFSCTX.endpoint_mode[1] = FUSB_EP1_MODE;
     23c:	200017b7          	lui	a5,0x20001
     240:	d4078613          	addi	a2,a5,-704 # 20000d40 <USBFSCTX>
     244:	10060693          	addi	a3,a2,256
     248:	4585                	li	a1,1
     24a:	cacc                	sw	a1,20(a3)
#if FUSB_EP1_MODE > 0 
	USBFS->UEP4_1_MOD = USBFS_UEP1_TX_EN;
     24c:	40023737          	lui	a4,0x40023
     250:	04000513          	li	a0,64
     254:	40a70623          	sb	a0,1036(a4) # 4002340c <_eusrstack+0x2001e40c>
	USBFS->UEP4_1_MOD |= USBFS_UEP4_RX_EN;
#endif
#endif

#if FUSB_EP2_MODE
	USBFSCTX.endpoint_mode[2] = FUSB_EP2_MODE;
     258:	557d                	li	a0,-1
     25a:	ce88                	sw	a0,24(a3)
#if FUSB_EP2_MODE > 0 
	USBFS->UEP2_3_MOD = USBFS_UEP2_TX_EN;
#else
	USBFS->UEP2_3_MOD = USBFS_UEP2_RX_EN;
     25c:	4521                	li	a0,8
     25e:	40a706a3          	sb	a0,1037(a4)
#endif
#endif
#if FUSB_EP3_MODE
	USBFSCTX.endpoint_mode[3] = FUSB_EP3_MODE;
     262:	cecc                	sw	a1,28(a3)
#if FUSB_EP3_MODE > 0 
	USBFS->UEP2_3_MOD |= USBFS_UEP3_TX_EN;
     264:	40d74683          	lbu	a3,1037(a4)
     268:	d4078793          	addi	a5,a5,-704
     26c:	0406e693          	ori	a3,a3,64
     270:	40d706a3          	sb	a3,1037(a4)
#error You must have at least EP0!
#endif

	for( int i = 0; i < FUSB_CONFIG_EPS; i++ )
	{
		UEP_DMA(i) = (uintptr_t)USBFSCTX.ENDPOINTS[i];
     274:	20001737          	lui	a4,0x20001
     278:	400236b7          	lui	a3,0x40023
     27c:	d5070713          	addi	a4,a4,-688 # 20000d50 <USBFSCTX+0x10>
     280:	40e6a823          	sw	a4,1040(a3) # 40023410 <_eusrstack+0x2001e410>
     284:	20001737          	lui	a4,0x20001
     288:	d9070713          	addi	a4,a4,-624 # 20000d90 <USBFSCTX+0x50>
     28c:	40e6aa23          	sw	a4,1044(a3)
     290:	20001737          	lui	a4,0x20001
     294:	dd070713          	addi	a4,a4,-560 # 20000dd0 <USBFSCTX+0x90>
     298:	40e6ac23          	sw	a4,1048(a3)
     29c:	20001737          	lui	a4,0x20001
     2a0:	e1070713          	addi	a4,a4,-496 # 20000e10 <USBFSCTX+0xd0>
     2a4:	40e6ae23          	sw	a4,1052(a3)
	}
	
#if defined (CH5xx) || defined (CH32X03x) || defined (CH32V10x)
	UEP_CTRL_TX(0) = USBFS_UEP_T_RES_NAK | USBFS_UEP_R_RES_ACK | CHECK_USBFS_UEP_T_AUTO_TOG;
     2a8:	8736                	mv	a4,a3
     2aa:	46c9                	li	a3,18
     2ac:	42d71123          	sh	a3,1058(a4)

	for( int i = 1; i < FUSB_CONFIG_EPS; i++ )
	{
		if( USBFSCTX.endpoint_mode[i] > 0 )
		{
			UEP_CTRL_TX(i) = USBFS_UEP_T_RES_NAK;
     2b0:	4689                	li	a3,2
     2b2:	42d71323          	sh	a3,1062(a4)
			UEP_CTRL_TX(i) = USBFS_UEP_R_RES_ACK;
#else
			UEP_CTRL_RX(i) = USBFS_UEP_R_RES_ACK;
#endif
		}
		USBFSCTX.USBFS_Endp_Busy[i] = 0;
     2b6:	120602a3          	sb	zero,293(a2)
			UEP_CTRL_TX(i) = USBFS_UEP_R_RES_ACK;
     2ba:	42071523          	sh	zero,1066(a4)
		if( USBFSCTX.endpoint_mode[i] > 0 )
     2be:	11c7a703          	lw	a4,284(a5)
		USBFSCTX.USBFS_Endp_Busy[i] = 0;
     2c2:	12078323          	sb	zero,294(a5)
		if( USBFSCTX.endpoint_mode[i] > 0 )
     2c6:	00e05963          	blez	a4,2d8 <USBFS_InternalFinishSetup+0x9c>
			UEP_CTRL_TX(i) = USBFS_UEP_T_RES_NAK;
     2ca:	40023737          	lui	a4,0x40023
     2ce:	42d71723          	sh	a3,1070(a4) # 4002342e <_eusrstack+0x2001e42e>
		USBFSCTX.USBFS_Endp_Busy[i] = 0;
     2d2:	120783a3          	sb	zero,295(a5)
	}
}
     2d6:	8082                	ret
		else if( USBFSCTX.endpoint_mode[i] < 0 )
     2d8:	df6d                	beqz	a4,2d2 <USBFS_InternalFinishSetup+0x96>
			UEP_CTRL_TX(i) = USBFS_UEP_R_RES_ACK;
     2da:	40023737          	lui	a4,0x40023
     2de:	42071723          	sh	zero,1070(a4) # 4002342e <_eusrstack+0x2001e42e>
     2e2:	bfc5                	j	2d2 <USBFS_InternalFinishSetup+0x96>

000002e4 <DelaySysTick.constprop.0>:
{
#if defined(CH32V003) || defined(CH32V00x)
	uint32_t targend = SysTick->CNT + n;
	while( ((int32_t)( SysTick->CNT - targend )) < 0 );
#elif defined(CH32V20x) || defined(CH32V30x) || defined(CH32X03x) || defined(CH32L103) || defined(CH582_CH583) || defined(CH591_CH592)
	uint64_t targend = SysTick->CNT + n;
     2e4:	e000f837          	lui	a6,0xe000f
     2e8:	00882703          	lw	a4,8(a6) # e000f008 <_eusrstack+0xc000a008>
     2ec:	00c82783          	lw	a5,12(a6)
     2f0:	1e070613          	addi	a2,a4,480
     2f4:	00e636b3          	sltu	a3,a2,a4
     2f8:	96be                	add	a3,a3,a5
	while( ((int64_t)( SysTick->CNT - targend )) < 0 );
     2fa:	00882503          	lw	a0,8(a6)
     2fe:	00c82583          	lw	a1,12(a6)
     302:	40c50733          	sub	a4,a0,a2
     306:	00e53733          	sltu	a4,a0,a4
     30a:	40d587b3          	sub	a5,a1,a3
     30e:	8f99                	sub	a5,a5,a4
     310:	fe07c5e3          	bltz	a5,2fa <DelaySysTick.constprop.0+0x16>
	uint64_t targend = SysTick->CNT - n;
	while( ((int64_t)( SysTick->CNT - targend )) > 0 );
#else
	#error DelaySysTick not defined.
#endif
}
     314:	8082                	ret

00000316 <handle_reset>:
	asm volatile( "\n\
     316:	20000197          	auipc	gp,0x20000
     31a:	0e618193          	addi	gp,gp,230 # 200003fc <__global_pointer$>
     31e:	20005117          	auipc	sp,0x20005
     322:	ce210113          	addi	sp,sp,-798 # 20005000 <_eusrstack>
     326:	6509                	lui	a0,0x2
     328:	88050513          	addi	a0,a0,-1920 # 1880 <ch32fun.c.9f36c09d+0x2ed>
     32c:	30051073          	csrw	mstatus,a0
     330:	468d                	li	a3,3
     332:	00000517          	auipc	a0,0x0
     336:	cce50513          	addi	a0,a0,-818 # 0 <InterruptVector>
     33a:	8d55                	or	a0,a0,a3
     33c:	30551073          	csrw	mtvec,a0
asm volatile(
     340:	c0418513          	addi	a0,gp,-1020 # 20000000 <millis_cnt>
     344:	20001597          	auipc	a1,0x20001
     348:	b2858593          	addi	a1,a1,-1240 # 20000e6c <_ebss>
     34c:	4601                	li	a2,0
     34e:	00b55663          	bge	a0,a1,35a <handle_reset+0x44>
     352:	c110                	sw	a2,0(a0)
     354:	0511                	addi	a0,a0,4
     356:	feb54ee3          	blt	a0,a1,352 <handle_reset+0x3c>
     35a:	00001517          	auipc	a0,0x1
     35e:	0aa50513          	addi	a0,a0,170 # 1404 <_data_lma>
     362:	c0418593          	addi	a1,gp,-1020 # 20000000 <millis_cnt>
     366:	c0418613          	addi	a2,gp,-1020 # 20000000 <millis_cnt>
     36a:	00c58863          	beq	a1,a2,37a <handle_reset+0x64>
     36e:	4114                	lw	a3,0(a0)
     370:	c194                	sw	a3,0(a1)
     372:	0511                	addi	a0,a0,4
     374:	0591                	addi	a1,a1,4
     376:	fec59ae3          	bne	a1,a2,36a <handle_reset+0x54>
	SysTick->CTLR = 5;
     37a:	e000f7b7          	lui	a5,0xe000f
     37e:	4715                	li	a4,5
     380:	c398                	sw	a4,0(a5)
asm volatile(
     382:	6785                	lui	a5,0x1
     384:	d4a78793          	addi	a5,a5,-694 # d4a <main>
     388:	34179073          	csrw	mepc,a5
     38c:	30200073          	mret

00000390 <ADC1_2_IRQHandler>:
	asm volatile( "1: j 1b" );
     390:	a001                	j	390 <ADC1_2_IRQHandler>

00000392 <NMI_Handler>:
	RCC->INTR |= RCC_CSSC;	// clear the clock security int flag
     392:	40021737          	lui	a4,0x40021
     396:	471c                	lw	a5,8(a4)
     398:	008006b7          	lui	a3,0x800
     39c:	8fd5                	or	a5,a5,a3
     39e:	c71c                	sw	a5,8(a4)

000003a0 <USBFS_IRQHandler>:
{
     3a0:	7159                	addi	sp,sp,-112
     3a2:	c0be                	sw	a5,64(sp)
	uint16_t intfgst = *(uint16_t*)(&USBFS->INT_FG);
     3a4:	400237b7          	lui	a5,0x40023
{
     3a8:	cc66                	sw	s9,24(sp)
	uint16_t intfgst = *(uint16_t*)(&USBFS->INT_FG);
     3aa:	4067dc83          	lhu	s9,1030(a5) # 40023406 <_eusrstack+0x2001e406>
{
     3ae:	c86e                	sw	s11,16(sp)
     3b0:	d686                	sw	ra,108(sp)
     3b2:	d496                	sw	t0,104(sp)
     3b4:	d29a                	sw	t1,100(sp)
     3b6:	d09e                	sw	t2,96(sp)
     3b8:	cea2                	sw	s0,92(sp)
     3ba:	cca6                	sw	s1,88(sp)
     3bc:	caaa                	sw	a0,84(sp)
     3be:	c8ae                	sw	a1,80(sp)
     3c0:	c6b2                	sw	a2,76(sp)
     3c2:	c4b6                	sw	a3,72(sp)
     3c4:	c2ba                	sw	a4,68(sp)
     3c6:	de42                	sw	a6,60(sp)
     3c8:	dc46                	sw	a7,56(sp)
     3ca:	da4a                	sw	s2,52(sp)
     3cc:	d84e                	sw	s3,48(sp)
     3ce:	d652                	sw	s4,44(sp)
     3d0:	d456                	sw	s5,40(sp)
     3d2:	d25a                	sw	s6,36(sp)
     3d4:	d05e                	sw	s7,32(sp)
     3d6:	ce62                	sw	s8,28(sp)
     3d8:	ca6a                	sw	s10,20(sp)
     3da:	c672                	sw	t3,12(sp)
     3dc:	c476                	sw	t4,8(sp)
     3de:	c27a                	sw	t5,4(sp)
     3e0:	c07e                	sw	t6,0(sp)
	if( intfgst & CRB_UIF_TRANSFER )
     3e2:	002cf793          	andi	a5,s9,2
     3e6:	5e078463          	beqz	a5,9ce <USBFS_IRQHandler+0x62e>
		if( usb_debug ) printf("[USB] TRANSFER, token = %02x, ep = %d, bmRequestType = %02x, bRequest = %02x\n", token, ep, pUSBFS_SetupReqPak->bmRequestType, pUSBFS_SetupReqPak->bRequest);
     3ea:	c0c1c783          	lbu	a5,-1012(gp) # 20000008 <usb_debug>
		int token = ( intfgst & CMASK_UIS_TOKEN) >> 12;
     3ee:	40ccd413          	srai	s0,s9,0xc
		int ep = ( intfgst & CMASK_UIS_ENDP ) >> 8;
     3f2:	408cdb13          	srai	s6,s9,0x8
		int token = ( intfgst & CMASK_UIS_TOKEN) >> 12;
     3f6:	880d                	andi	s0,s0,3
		int ep = ( intfgst & CMASK_UIS_ENDP ) >> 8;
     3f8:	00fb7493          	andi	s1,s6,15
		if( usb_debug ) printf("[USB] TRANSFER, token = %02x, ep = %d, bmRequestType = %02x, bRequest = %02x\n", token, ep, pUSBFS_SetupReqPak->bmRequestType, pUSBFS_SetupReqPak->bRequest);
     3fc:	c385                	beqz	a5,41c <USBFS_IRQHandler+0x7c>
     3fe:	200017b7          	lui	a5,0x20001
     402:	d4078793          	addi	a5,a5,-704 # 20000d40 <USBFSCTX>
     406:	0117c703          	lbu	a4,17(a5)
     40a:	0107c683          	lbu	a3,16(a5)
     40e:	6505                	lui	a0,0x1
     410:	8626                	mv	a2,s1
     412:	85a2                	mv	a1,s0
     414:	28850513          	addi	a0,a0,648 # 1288 <language+0x48>
     418:	10b000ef          	jal	d22 <printf>
		switch ( token )
     41c:	4609                	li	a2,2
     41e:	04c40f63          	beq	s0,a2,47c <USBFS_IRQHandler+0xdc>
     422:	400237b7          	lui	a5,0x40023
     426:	470d                	li	a4,3
     428:	40078793          	addi	a5,a5,1024 # 40023400 <_eusrstack+0x2001e400>
     42c:	2ae40163          	beq	s0,a4,6ce <USBFS_IRQHandler+0x32e>
     430:	16040363          	beqz	s0,596 <USBFS_IRQHandler+0x1f6>
		USBFS->INT_FG = CRB_UIF_TRANSFER;
     434:	400237b7          	lui	a5,0x40023
     438:	4709                	li	a4,2
     43a:	40e78323          	sb	a4,1030(a5) # 40023406 <_eusrstack+0x2001e406>
}
     43e:	4476                	lw	s0,92(sp)
     440:	50b6                	lw	ra,108(sp)
     442:	52a6                	lw	t0,104(sp)
     444:	5316                	lw	t1,100(sp)
     446:	5386                	lw	t2,96(sp)
     448:	44e6                	lw	s1,88(sp)
     44a:	4556                	lw	a0,84(sp)
     44c:	45c6                	lw	a1,80(sp)
     44e:	4636                	lw	a2,76(sp)
     450:	46a6                	lw	a3,72(sp)
     452:	4716                	lw	a4,68(sp)
     454:	4786                	lw	a5,64(sp)
     456:	5872                	lw	a6,60(sp)
     458:	58e2                	lw	a7,56(sp)
     45a:	5952                	lw	s2,52(sp)
     45c:	59c2                	lw	s3,48(sp)
     45e:	5a32                	lw	s4,44(sp)
     460:	5aa2                	lw	s5,40(sp)
     462:	5b12                	lw	s6,36(sp)
     464:	5b82                	lw	s7,32(sp)
     466:	4c72                	lw	s8,28(sp)
     468:	4ce2                	lw	s9,24(sp)
     46a:	4d52                	lw	s10,20(sp)
     46c:	4dc2                	lw	s11,16(sp)
     46e:	4e32                	lw	t3,12(sp)
     470:	4ea2                	lw	t4,8(sp)
     472:	4f12                	lw	t5,4(sp)
     474:	4f82                	lw	t6,0(sp)
     476:	6165                	addi	sp,sp,112
     478:	30200073          	mret
			if( ep )
     47c:	cca1                	beqz	s1,4d4 <USBFS_IRQHandler+0x134>
				if( ep < FUSB_CONFIG_EPS )
     47e:	00cb7b13          	andi	s6,s6,12
     482:	fa0b19e3          	bnez	s6,434 <USBFS_IRQHandler+0x94>

int HandleInRequest( struct _USBState * ctx, int endp, uint8_t * data, int len )
{
	int ret = 0;  // Just NAK
	// if (usb_debug) printf("HandleInRequest - EP%d\n", endp);
	switch (endp)
     486:	478d                	li	a5,3
     488:	00f49863          	bne	s1,a5,498 <USBFS_IRQHandler+0xf8>
	{
		case 1:
			// ret = -1; // Just ACK
			break;
		case 3:
			cdc.rxing = 0;
     48c:	200017b7          	lui	a5,0x20001
     490:	d0c78793          	addi	a5,a5,-756 # 20000d0c <cdc>
     494:	00078623          	sb	zero,12(a5)
					UEP_CTRL_TX(ep) ^= USBFS_UEP_T_TOG;
     498:	400237b7          	lui	a5,0x40023
     49c:	42278793          	addi	a5,a5,1058 # 40023422 <_eusrstack+0x2001e422>
     4a0:	00249713          	slli	a4,s1,0x2
     4a4:	973e                	add	a4,a4,a5
     4a6:	00075783          	lhu	a5,0(a4) # 40021000 <_eusrstack+0x2001c000>
     4aa:	0407c793          	xori	a5,a5,64
     4ae:	00f71023          	sh	a5,0(a4)
						UEP_CTRL_TX(ep) = ( UEP_CTRL_TX(ep) & ~USBFS_UEP_T_RES_MASK ) | USBFS_UEP_T_RES_NAK;
     4b2:	00075783          	lhu	a5,0(a4)
     4b6:	07c2                	slli	a5,a5,0x10
     4b8:	83c1                	srli	a5,a5,0x10
     4ba:	9bf1                	andi	a5,a5,-4
     4bc:	0027e793          	ori	a5,a5,2
     4c0:	00f71023          	sh	a5,0(a4)
					ctx->USBFS_Endp_Busy[ ep ] = 0;
     4c4:	200017b7          	lui	a5,0x20001
     4c8:	d4078793          	addi	a5,a5,-704 # 20000d40 <USBFSCTX>
     4cc:	97a6                	add	a5,a5,s1
     4ce:	12078223          	sb	zero,292(a5)
     4d2:	b78d                	j	434 <USBFS_IRQHandler+0x94>
				if( ctx->USBFS_SetupReqLen == 0 )
     4d4:	20001437          	lui	s0,0x20001
     4d8:	d4040793          	addi	a5,s0,-704 # 20000d40 <USBFSCTX>
     4dc:	0027d783          	lhu	a5,2(a5)
     4e0:	d4040413          	addi	s0,s0,-704
     4e4:	e799                	bnez	a5,4f2 <USBFS_IRQHandler+0x152>
					UEP_CTRL_TX(0) = USBFS_UEP_R_RES_ACK | USBFS_UEP_R_TOG;
     4e6:	400237b7          	lui	a5,0x40023
     4ea:	08000713          	li	a4,128
     4ee:	42e79123          	sh	a4,1058(a5) # 40023422 <_eusrstack+0x2001e422>
				if( ctx->pCtrlPayloadPtr )
     4f2:	00c42983          	lw	s3,12(s0)
				ctx->USBFS_errata_dont_send_endpoint_in_window = 0;
     4f6:	12040423          	sb	zero,296(s0)
				if( ctx->pCtrlPayloadPtr )
     4fa:	04098a63          	beqz	s3,54e <USBFS_IRQHandler+0x1ae>
					len = ctx->USBFS_SetupReqLen >= DEF_USBD_UEP0_SIZE ? DEF_USBD_UEP0_SIZE : ctx->USBFS_SetupReqLen;
     4fe:	00245483          	lhu	s1,2(s0)
     502:	04000793          	li	a5,64
     506:	8926                	mv	s2,s1
     508:	0097f363          	bgeu	a5,s1,50e <USBFS_IRQHandler+0x16e>
     50c:	893e                	mv	s2,a5
     50e:	0942                	slli	s2,s2,0x10
     510:	01095913          	srli	s2,s2,0x10
					ctx->USBFS_SetupReqLen -= len;
     514:	412484b3          	sub	s1,s1,s2
					copyBuffer( ctrl0buff, ctx->pCtrlPayloadPtr, len ); // FYI -> Would need to do this if using DMA
     518:	20001537          	lui	a0,0x20001
					ctx->USBFS_SetupReqLen -= len;
     51c:	04c2                	slli	s1,s1,0x10
					copyBuffer( ctrl0buff, ctx->pCtrlPayloadPtr, len ); // FYI -> Would need to do this if using DMA
     51e:	864a                	mv	a2,s2
     520:	85ce                	mv	a1,s3
     522:	d5050513          	addi	a0,a0,-688 # 20000d50 <USBFSCTX+0x10>
					ctx->USBFS_SetupReqLen -= len;
     526:	80c1                	srli	s1,s1,0x10
					copyBuffer( ctrl0buff, ctx->pCtrlPayloadPtr, len ); // FYI -> Would need to do this if using DMA
     528:	2f35                	jal	c64 <memcpy>
					ctx->USBFS_SetupReqLen -= len;
     52a:	00941123          	sh	s1,2(s0)
						ctx->pCtrlPayloadPtr = 0;
     52e:	4781                	li	a5,0
					if( ctx->USBFS_SetupReqLen > 0 )
     530:	c099                	beqz	s1,536 <USBFS_IRQHandler+0x196>
						ctx->pCtrlPayloadPtr += len;
     532:	012987b3          	add	a5,s3,s2
     536:	c45c                	sw	a5,12(s0)
					UEP_CTRL_LEN(0) = len;
     538:	400237b7          	lui	a5,0x40023
     53c:	43279023          	sh	s2,1056(a5) # 40023420 <_eusrstack+0x2001e420>
						UEP_CTRL_TX(0) ^= USBFS_UEP_T_TOG;
     540:	4227d703          	lhu	a4,1058(a5)
     544:	04074713          	xori	a4,a4,64
			UEP_CTRL_TX(0) = USBFS_UEP_T_TOG | USBFS_UEP_T_RES_STALL | USBFS_UEP_R_TOG | USBFS_UEP_R_RES_STALL;
     548:	42e79123          	sh	a4,1058(a5)
     54c:	b5e5                	j	434 <USBFS_IRQHandler+0x94>
				else if ( ( ctx->USBFS_SetupReqType & USB_REQ_TYP_MASK ) != USB_REQ_TYP_STANDARD )
     54e:	00144783          	lbu	a5,1(s0)
     552:	0607f793          	andi	a5,a5,96
     556:	cf99                	beqz	a5,574 <USBFS_IRQHandler+0x1d4>
					if( len && USBFSCTX.USBFS_SetupReqCode != HID_GET_REPORT )
     558:	00245783          	lhu	a5,2(s0)
     55c:	ec078ce3          	beqz	a5,434 <USBFS_IRQHandler+0x94>
     560:	00044703          	lbu	a4,0(s0)
     564:	4785                	li	a5,1
     566:	ecf707e3          	beq	a4,a5,434 <USBFS_IRQHandler+0x94>
						UEP_CTRL_LEN(0) = len;
     56a:	400237b7          	lui	a5,0x40023
     56e:	42079023          	sh	zero,1056(a5) # 40023420 <_eusrstack+0x2001e420>
     572:	b7f9                	j	540 <USBFS_IRQHandler+0x1a0>
					switch( USBFSCTX.USBFS_SetupReqCode )
     574:	00044703          	lbu	a4,0(s0)
     578:	4795                	li	a5,5
     57a:	eaf71de3          	bne	a4,a5,434 <USBFS_IRQHandler+0x94>
							USBFS->DEV_ADDR = ( USBFS->DEV_ADDR & USBFS_UDA_GP_BIT ) | ctx->USBFS_DevAddr;
     57e:	400237b7          	lui	a5,0x40023
     582:	4037c683          	lbu	a3,1027(a5) # 40023403 <_eusrstack+0x2001e403>
     586:	00944703          	lbu	a4,9(s0)
     58a:	0806f693          	andi	a3,a3,128
     58e:	8f55                	or	a4,a4,a3
     590:	40e781a3          	sb	a4,1027(a5)
							break;
     594:	b545                	j	434 <USBFS_IRQHandler+0x94>
			len = USBFS->RX_LEN;
     596:	0087d703          	lhu	a4,8(a5)
			switch( ep )
     59a:	e8b1                	bnez	s1,5ee <USBFS_IRQHandler+0x24e>
					if( intfgst & CRB_UIS_TOG_OK )
     59c:	011c9793          	slli	a5,s9,0x11
     5a0:	e807dae3          	bgez	a5,434 <USBFS_IRQHandler+0x94>
						if ( ctx->USBFS_SetupReqCode != HID_SET_REPORT )
     5a4:	200017b7          	lui	a5,0x20001
     5a8:	d4078713          	addi	a4,a5,-704 # 20000d40 <USBFSCTX>
     5ac:	00074603          	lbu	a2,0(a4)
     5b0:	46a5                	li	a3,9
     5b2:	d4078793          	addi	a5,a5,-704
     5b6:	02d60263          	beq	a2,a3,5da <USBFS_IRQHandler+0x23a>
void HandleDataOut( struct _USBState * ctx, int endp, uint8_t * data, int len )
{
	// if (usb_debug) printf("HandleDataOut - EP%d\n", endp);
	if( endp == 0 )
	{
		ctx->USBFS_SetupReqLen = 0; // To ACK
     5ba:	00079123          	sh	zero,2(a5)
							if ( ( ctx->USBFS_SetupReqType & USB_REQ_TYP_IN ) == 0 )
     5be:	00178703          	lb	a4,1(a5)
     5c2:	00074563          	bltz	a4,5cc <USBFS_IRQHandler+0x22c>
								ctx->USBFS_errata_dont_send_endpoint_in_window = 1;
     5c6:	4705                	li	a4,1
     5c8:	12e78423          	sb	a4,296(a5)
							UEP_CTRL_LEN(0) = 0;
     5cc:	400237b7          	lui	a5,0x40023
     5d0:	42079023          	sh	zero,1056(a5) # 40023420 <_eusrstack+0x2001e420>
							UEP_CTRL_TX(0) = USBFS_UEP_T_TOG | CHECK_USBFS_UEP_T_AUTO_TOG | USBFS_UEP_T_RES_ACK;
     5d4:	05000713          	li	a4,80
     5d8:	bf85                	j	548 <USBFS_IRQHandler+0x1a8>
						if( ctx->USBFS_SetupReqLen == 0 )
     5da:	00275703          	lhu	a4,2(a4)
     5de:	d365                	beqz	a4,5be <USBFS_IRQHandler+0x21e>
							UEP_CTRL_TX(0) ^= USBFS_UEP_R_TOG;
     5e0:	400237b7          	lui	a5,0x40023
     5e4:	4227d703          	lhu	a4,1058(a5) # 40023422 <_eusrstack+0x2001e422>
     5e8:	08074713          	xori	a4,a4,128
     5ec:	bfb1                	j	548 <USBFS_IRQHandler+0x1a8>
					UEP_CTRL_TX(ep) ^= USBFS_UEP_R_TOG;
     5ee:	400236b7          	lui	a3,0x40023
     5f2:	42268693          	addi	a3,a3,1058 # 40023422 <_eusrstack+0x2001e422>
     5f6:	00249713          	slli	a4,s1,0x2
     5fa:	9736                	add	a4,a4,a3
     5fc:	00075683          	lhu	a3,0(a4)
     600:	0806c693          	xori	a3,a3,128
     604:	00d71023          	sh	a3,0(a4)
			// cdc.uart->stop_bits = CTRL0BUFF[4];
			// cdc.uart->parity = CTRL0BUFF[5];
			// cdc.uart->word_length = CTRL0BUFF[6];
		}
	}
	if( endp == 2 )
     608:	e2c496e3          	bne	s1,a2,434 <USBFS_IRQHandler+0x94>
	{
		if( cdc.tx_stop )
     60c:	20001737          	lui	a4,0x20001
     610:	d0c70693          	addi	a3,a4,-756 # 20000d0c <cdc>
     614:	0306c603          	lbu	a2,48(a3)
     618:	d0c70713          	addi	a4,a4,-756
     61c:	c601                	beqz	a2,624 <USBFS_IRQHandler+0x284>
		{
			cdc.tx_stop = 0;
     61e:	02068823          	sb	zero,48(a3)
			return;
     622:	bd09                	j	434 <USBFS_IRQHandler+0x94>
		}
		// printf("cdc_tx_buffer: 0=%c, 1=%c, 2=%c, 3=%c\n", cdc_tx_buffer[uart.tx_pos], cdc_tx_buffer[uart.tx_pos + 1], cdc_tx_buffer[uart.tx_pos + 2], cdc_tx_buffer[uart.tx_pos + 3]);
		int pad = 4 - USBFS->RX_LEN;
     624:	0087d683          	lhu	a3,8(a5)
		if( pad < 0 ) pad = 0;
		uint32_t write_pos = cdc.tx_pos + cdc.tx_remain + USBFS->RX_LEN;
     628:	5714                	lw	a3,40(a4)
     62a:	534c                	lw	a1,36(a4)
     62c:	0087d783          	lhu	a5,8(a5)
     630:	97ae                	add	a5,a5,a1
     632:	97b6                	add	a5,a5,a3
		if( write_pos > cdc.tx_wrap_pos ) write_pos -= cdc.tx_wrap_pos;
     634:	5754                	lw	a3,44(a4)
     636:	00f6f363          	bgeu	a3,a5,63c <USBFS_IRQHandler+0x29c>
     63a:	8f95                	sub	a5,a5,a3
		if( write_pos & 0x3 )
     63c:	0037f693          	andi	a3,a5,3
     640:	c28d                	beqz	a3,662 <USBFS_IRQHandler+0x2c2>

static inline int USBFS_SendNAK( int endp, int tx )
{
	if( tx ) UEP_CTRL_TX( endp ) = ( UEP_CTRL_TX( endp ) & ~USBFS_UEP_T_RES_MASK ) | USBFS_UEP_T_RES_NAK;
#if defined (CH5xx) || defined (CH32X03x) || defined (CH32V10x)
	else UEP_CTRL_TX(endp) = ( UEP_CTRL_TX(endp) & ~USBFS_UEP_R_RES_MASK ) | USBFS_UEP_R_RES_NAK;
     642:	40023637          	lui	a2,0x40023
     646:	42a65683          	lhu	a3,1066(a2) # 4002342a <_eusrstack+0x2001e42a>
		{
			write_pos = (write_pos + 4) & ~0x3;
     64a:	0791                	addi	a5,a5,4
     64c:	9bf1                	andi	a5,a5,-4
     64e:	06c2                	slli	a3,a3,0x10
     650:	82c1                	srli	a3,a3,0x10
     652:	9acd                	andi	a3,a3,-13
     654:	0086e693          	ori	a3,a3,8
     658:	42d61523          	sh	a3,1066(a2)
			USBFS_SendNAK( 2, 0 );
			// USBFS->UEP2_RX_CTRL &= ~USBFS_UEP_R_RES_MASK;
			// USBFS->UEP2_RX_CTRL |= USBFS_UEP_R_RES_NAK;
			cdc.tx_stop = 1;
     65c:	4685                	li	a3,1
     65e:	02d70823          	sb	a3,48(a4)
		}
		// printf("[HandleDatOut] write_pos = %d, tx_pos = %d, tx_remain = %d, USBFS->RX_LEN = %d \n", write_pos, cdc.tx_pos, cdc.tx_remain, USBFS->RX_LEN);
		// if( write_pos >= uart.tx_wrap_pos) write_pos = uart.tx_remain - (uart.tx_wrap_pos - uart.tx_pos);
		// if( write_pos < uart.tx_pos && write_pos + 64 >= uart.tx_pos ) goto buffer_overflow;
		if( write_pos > ( UART_TX_BUF_SIZE - 64) )
     662:	3c000693          	li	a3,960
     666:	00f6fd63          	bgeu	a3,a5,680 <USBFS_IRQHandler+0x2e0>
		{
			// printf("WRAP -> write_pos = %d > 960, 961 = %c\n", write_pos, cdc_tx_buffer[961]);
			cdc.tx_wrap_pos = cdc.tx_pos + cdc.tx_remain + USBFS->RX_LEN;
     66a:	400237b7          	lui	a5,0x40023
     66e:	40078793          	addi	a5,a5,1024 # 40023400 <_eusrstack+0x2001e400>
     672:	5714                	lw	a3,40(a4)
     674:	0087d783          	lhu	a5,8(a5)
     678:	97ae                	add	a5,a5,a1
     67a:	97b6                	add	a5,a5,a3
     67c:	d75c                	sw	a5,44(a4)
			write_pos = 0;
     67e:	4781                	li	a5,0
		// if( write_pos + len > UART_TX_BUF_SIZE - 1 )
		// {
		//   uart.tx_wrap_pos = write_pos;
		//   write_pos = 0;
		// }
		USBFS->UEP2_DMA = (uint32_t)(cdc_tx_buffer + write_pos);
     680:	200016b7          	lui	a3,0x20001
     684:	90c68693          	addi	a3,a3,-1780 # 2000090c <cdc_tx_buffer>
     688:	97b6                	add	a5,a5,a3
     68a:	400236b7          	lui	a3,0x40023
     68e:	40068693          	addi	a3,a3,1024 # 40023400 <_eusrstack+0x2001e400>
     692:	ce9c                	sw	a5,24(a3)
		// printf("USBFS->UEP2_DMA = %08x\n", USBFS->UEP2_DMA);
		
		if( cdc.tx_remain >= ( UART_TX_BUF_SIZE ) )
     694:	5714                	lw	a3,40(a4)
     696:	3ff00793          	li	a5,1023
     69a:	02d7f063          	bgeu	a5,a3,6ba <USBFS_IRQHandler+0x31a>
     69e:	400236b7          	lui	a3,0x40023
     6a2:	42a6d783          	lhu	a5,1066(a3) # 4002342a <_eusrstack+0x2001e42a>
     6a6:	07c2                	slli	a5,a5,0x10
     6a8:	83c1                	srli	a5,a5,0x10
     6aa:	9bcd                	andi	a5,a5,-13
     6ac:	0087e793          	ori	a5,a5,8
     6b0:	42f69523          	sh	a5,1066(a3)
		{
			// if( usb_debug ) printf("Buffer overflow, %c\n", cdc_tx_buffer[961]);
			USBFS_SendNAK( 2, 0 );
			// USBFS->UEP2_RX_CTRL &= ~USBFS_UEP_R_RES_MASK;
			// USBFS->UEP2_RX_CTRL |= USBFS_UEP_R_RES_NAK;
			cdc.tx_stop = 1;
     6b4:	4785                	li	a5,1
     6b6:	02f70823          	sb	a5,48(a4)
		}
		cdc.tx_remain += USBFS->RX_LEN;
     6ba:	400237b7          	lui	a5,0x40023
     6be:	40078793          	addi	a5,a5,1024 # 40023400 <_eusrstack+0x2001e400>
     6c2:	0087d783          	lhu	a5,8(a5)
     6c6:	5714                	lw	a3,40(a4)
     6c8:	97b6                	add	a5,a5,a3
     6ca:	d71c                	sw	a5,40(a4)
     6cc:	b3a5                	j	434 <USBFS_IRQHandler+0x94>
			if (!(USBFS->INT_ST & 0x80)) goto replycomplete;
     6ce:	0077c783          	lbu	a5,7(a5)
     6d2:	07e2                	slli	a5,a5,0x18
     6d4:	87e1                	srai	a5,a5,0x18
     6d6:	d407dfe3          	bgez	a5,434 <USBFS_IRQHandler+0x94>
			int USBFS_SetupReqType = USBFSCTX.USBFS_SetupReqType  = pUSBFS_SetupReqPak->bmRequestType;
     6da:	20001d37          	lui	s10,0x20001
			UEP_CTRL_TX(0) = USBFS_UEP_T_RES_NAK | USBFS_UEP_T_TOG | USBFS_UEP_R_RES_NAK | USBFS_UEP_R_TOG | CHECK_USBFS_UEP_AUTO_TOG;
     6de:	400237b7          	lui	a5,0x40023
     6e2:	0da00713          	li	a4,218
     6e6:	42e79123          	sh	a4,1058(a5) # 40023422 <_eusrstack+0x2001e422>
			int USBFS_SetupReqType = USBFSCTX.USBFS_SetupReqType  = pUSBFS_SetupReqPak->bmRequestType;
     6ea:	d40d0793          	addi	a5,s10,-704 # 20000d40 <USBFSCTX>
			int USBFS_SetupReqCode = USBFSCTX.USBFS_SetupReqCode  = pUSBFS_SetupReqPak->bRequest;
     6ee:	0107d703          	lhu	a4,16(a5)
     6f2:	0147d983          	lhu	s3,20(a5)
			int USBFS_SetupReqLen = USBFSCTX.USBFS_SetupReqLen    = pUSBFS_SetupReqPak->wLength;
     6f6:	0167dc03          	lhu	s8,22(a5)
			int USBFS_SetupReqCode = USBFSCTX.USBFS_SetupReqCode  = pUSBFS_SetupReqPak->bRequest;
     6fa:	00875693          	srli	a3,a4,0x8
     6fe:	0722                	slli	a4,a4,0x8
     700:	8f55                	or	a4,a4,a3
     702:	d4ed1023          	sh	a4,-704(s10)
     706:	0127d703          	lhu	a4,18(a5)
     70a:	01099a13          	slli	s4,s3,0x10
			int USBFS_SetupReqType = USBFSCTX.USBFS_SetupReqType  = pUSBFS_SetupReqPak->bmRequestType;
     70e:	0107cb83          	lbu	s7,16(a5)
			int USBFS_SetupReqCode = USBFSCTX.USBFS_SetupReqCode  = pUSBFS_SetupReqPak->bRequest;
     712:	00ea6a33          	or	s4,s4,a4
     716:	0117c903          	lbu	s2,17(a5)
			int USBFS_SetupReqLen = USBFSCTX.USBFS_SetupReqLen    = pUSBFS_SetupReqPak->wLength;
     71a:	01879123          	sh	s8,2(a5)
			int USBFS_IndexValue = USBFSCTX.USBFS_IndexValue = ( pUSBFS_SetupReqPak->wIndex << 16 ) | pUSBFS_SetupReqPak->wValue;
     71e:	0147a223          	sw	s4,4(a5)
			if( usb_debug ) printf( "[USB] SETUP: %02x %02x %02d %02x %04x\n", USBFS_SetupReqType, USBFS_SetupReqCode, USBFS_SetupReqLen, USBFS_SetupReqIndex, USBFS_IndexValue );
     722:	c0c1c783          	lbu	a5,-1012(gp) # 20000008 <usb_debug>
			int USBFS_SetupReqLen = USBFSCTX.USBFS_SetupReqLen    = pUSBFS_SetupReqPak->wLength;
     726:	8ae2                	mv	s5,s8
			if( usb_debug ) printf( "[USB] SETUP: %02x %02x %02d %02x %04x\n", USBFS_SetupReqType, USBFS_SetupReqCode, USBFS_SetupReqLen, USBFS_SetupReqIndex, USBFS_IndexValue );
     728:	d40d0413          	addi	s0,s10,-704
     72c:	cb91                	beqz	a5,740 <USBFS_IRQHandler+0x3a0>
     72e:	6505                	lui	a0,0x1
     730:	87d2                	mv	a5,s4
     732:	874e                	mv	a4,s3
     734:	86e2                	mv	a3,s8
     736:	864a                	mv	a2,s2
     738:	85de                	mv	a1,s7
     73a:	2d850513          	addi	a0,a0,728 # 12d8 <language+0x98>
     73e:	23d5                	jal	d22 <printf>
			if( ( USBFS_SetupReqType & USB_REQ_TYP_MASK ) != USB_REQ_TYP_STANDARD )
     740:	060bf793          	andi	a5,s7,96
     744:	cff1                	beqz	a5,820 <USBFS_IRQHandler+0x480>
				if( ( USBFS_SetupReqType & USB_REQ_TYP_MASK ) == USB_REQ_TYP_CLASS )
     746:	02000713          	li	a4,32
     74a:	10e79b63          	bne	a5,a4,860 <USBFS_IRQHandler+0x4c0>
}

int HandleSetupCustom( struct _USBState * ctx, int setup_code)
{
	int ret = -1;
	if( ctx->USBFS_SetupReqType & USB_REQ_TYP_CLASS )
     74e:	00144983          	lbu	s3,1(s0)
     752:	00e9f733          	and	a4,s3,a4
     756:	cf45                	beqz	a4,80e <USBFS_IRQHandler+0x46e>
	{
		switch( setup_code )
     758:	02200713          	li	a4,34
     75c:	06e90663          	beq	s2,a4,7c8 <USBFS_IRQHandler+0x428>
     760:	01276d63          	bltu	a4,s2,77a <USBFS_IRQHandler+0x3da>
     764:	00f90f63          	beq	s2,a5,782 <USBFS_IRQHandler+0x3e2>
     768:	02100793          	li	a5,33
     76c:	06f90c63          	beq	s2,a5,7e4 <USBFS_IRQHandler+0x444>
			UEP_CTRL_TX(0) = USBFS_UEP_T_TOG | USBFS_UEP_T_RES_STALL | USBFS_UEP_R_TOG | USBFS_UEP_R_RES_STALL;
     770:	400237b7          	lui	a5,0x40023
     774:	0cf00713          	li	a4,207
     778:	bbc1                	j	548 <USBFS_IRQHandler+0x1a8>
     77a:	02300793          	li	a5,35
     77e:	fef919e3          	bne	s2,a5,770 <USBFS_IRQHandler+0x3d0>
					cdc.DTR_state = 0;
				}

			case CDC_SET_LINE_CODING:
			case CDC_SEND_BREAK:
				ret = (ctx->USBFS_SetupReqLen)?ctx->USBFS_SetupReqLen:-1;
     782:	00245483          	lhu	s1,2(s0)
     786:	e4bd                	bnez	s1,7f4 <USBFS_IRQHandler+0x454>
									ctx->USBFS_SetupReqLen = 0;
     788:	00041123          	sh	zero,2(s0)
									len = 0;
     78c:	4481                	li	s1,0
								if( ctx->USBFS_SetupReqType & DEF_UEP_IN || ctx->USBFS_SetupReqLen == 0)
     78e:	09e2                	slli	s3,s3,0x18
     790:	4189d993          	srai	s3,s3,0x18
     794:	0009c563          	bltz	s3,79e <USBFS_IRQHandler+0x3fe>
     798:	00245783          	lhu	a5,2(s0)
     79c:	efad                	bnez	a5,816 <USBFS_IRQHandler+0x476>
									len = len >= DEF_USBD_UEP0_SIZE ? DEF_USBD_UEP0_SIZE : len;
     79e:	04000793          	li	a5,64
     7a2:	0097d363          	bge	a5,s1,7a8 <USBFS_IRQHandler+0x408>
     7a6:	84be                	mv	s1,a5
									UEP_CTRL_LEN(0) = len;
     7a8:	04c2                	slli	s1,s1,0x10
     7aa:	400237b7          	lui	a5,0x40023
     7ae:	80c1                	srli	s1,s1,0x10
     7b0:	42979023          	sh	s1,1056(a5) # 40023420 <_eusrstack+0x2001e420>
									UEP_CTRL_TX(0) = USBFS_UEP_T_TOG|USBFS_UEP_T_RES_ACK;
     7b4:	04000713          	li	a4,64
     7b8:	42e79123          	sh	a4,1058(a5)
									ctx->USBFS_SetupReqLen -= len;
     7bc:	00245783          	lhu	a5,2(s0)
     7c0:	8f85                	sub	a5,a5,s1
     7c2:	00f41123          	sh	a5,2(s0)
     7c6:	b1bd                	j	434 <USBFS_IRQHandler+0x94>
				if (wValue&0x01)
     7c8:	4058                	lw	a4,4(s0)
     7ca:	200017b7          	lui	a5,0x20001
     7ce:	d0c78793          	addi	a5,a5,-756 # 20000d0c <cdc>
     7d2:	8b05                	andi	a4,a4,1
     7d4:	c709                	beqz	a4,7de <USBFS_IRQHandler+0x43e>
					cdc.DTR_state = 1;
     7d6:	4705                	li	a4,1
     7d8:	02e78923          	sb	a4,50(a5)
     7dc:	b75d                	j	782 <USBFS_IRQHandler+0x3e2>
					cdc.DTR_state = 0;
     7de:	02078923          	sb	zero,50(a5)
     7e2:	b745                	j	782 <USBFS_IRQHandler+0x3e2>

				break;
			case CDC_GET_LINE_CODING:
				ctx->pCtrlPayloadPtr = cdc.cdc_cfg;
     7e4:	200017b7          	lui	a5,0x20001
				ret = ctx->USBFS_SetupReqLen;
     7e8:	00245483          	lhu	s1,2(s0)
				ctx->pCtrlPayloadPtr = cdc.cdc_cfg;
     7ec:	d0c78793          	addi	a5,a5,-756 # 20000d0c <cdc>
     7f0:	c45c                	sw	a5,12(s0)
							if( len )
     7f2:	dcbd                	beqz	s1,770 <USBFS_IRQHandler+0x3d0>
									copyBuffer( ctrl0buff, ctx->pCtrlPayloadPtr, len );
     7f4:	00c42903          	lw	s2,12(s0)
     7f8:	20001537          	lui	a0,0x20001
     7fc:	8626                	mv	a2,s1
     7fe:	85ca                	mv	a1,s2
     800:	d5050513          	addi	a0,a0,-688 # 20000d50 <USBFSCTX+0x10>
									ctx->pCtrlPayloadPtr += len;
     804:	9926                	add	s2,s2,s1
									copyBuffer( ctrl0buff, ctx->pCtrlPayloadPtr, len );
     806:	29b9                	jal	c64 <memcpy>
									ctx->pCtrlPayloadPtr += len;
     808:	01242623          	sw	s2,12(s0)
     80c:	b749                	j	78e <USBFS_IRQHandler+0x3ee>
			default:
				ret = 0;
				break;
		}
	}
	else if( ctx->USBFS_SetupReqType & USB_REQ_TYP_VENDOR )
     80e:	0409f793          	andi	a5,s3,64
     812:	dfb9                	beqz	a5,770 <USBFS_IRQHandler+0x3d0>
     814:	bf95                	j	788 <USBFS_IRQHandler+0x3e8>
								else UEP_CTRL_TX(0)= USBFS_UEP_R_TOG|USBFS_UEP_R_RES_ACK;
     816:	400237b7          	lui	a5,0x40023
     81a:	08000713          	li	a4,128
     81e:	b32d                	j	548 <USBFS_IRQHandler+0x1a8>
				switch( USBFS_SetupReqCode )
     820:	47ad                	li	a5,11
     822:	f527e7e3          	bltu	a5,s2,770 <USBFS_IRQHandler+0x3d0>
     826:	6785                	lui	a5,0x1
     828:	33478793          	addi	a5,a5,820 # 1334 <language+0xf4>
     82c:	090a                	slli	s2,s2,0x2
     82e:	993e                	add	s2,s2,a5
     830:	00092783          	lw	a5,0(s2)
     834:	8782                	jr	a5
						const struct descriptor_list_struct * e = descriptor_list;
     836:	6785                	lui	a5,0x1
     838:	3bc78793          	addi	a5,a5,956 # 13bc <descriptor_list>
						for( ; e != e_end; e++ )
     83c:	6685                	lui	a3,0x1
							if( e->lIndexValue == USBFS_IndexValue )
     83e:	4398                	lw	a4,0(a5)
     840:	05471463          	bne	a4,s4,888 <USBFS_IRQHandler+0x4e8>
								ctx->pCtrlPayloadPtr = (uint8_t*)e->addr;
     844:	43d8                	lw	a4,4(a5)
								len = e->length;
     846:	0087c783          	lbu	a5,8(a5)
						ctx->USBFS_SetupReqLen = len;
     84a:	d40d0d13          	addi	s10,s10,-704
								ctx->pCtrlPayloadPtr = (uint8_t*)e->addr;
     84e:	c458                	sw	a4,12(s0)
						if( len > USBFS_SetupReqLen )
     850:	00fc5363          	bge	s8,a5,856 <USBFS_IRQHandler+0x4b6>
     854:	87e2                	mv	a5,s8
						ctx->USBFS_SetupReqLen = len;
     856:	00fd1123          	sh	a5,2(s10)
						ctx->USBFS_DevAddr = (uint8_t)( ctx->USBFS_IndexValue & 0xFF );
     85a:	405c                	lw	a5,4(s0)
     85c:	00f404a3          	sb	a5,9(s0)
				if( USBFS_SetupReqType & DEF_UEP_IN )
     860:	018b9593          	slli	a1,s7,0x18
     864:	85e1                	srai	a1,a1,0x18
     866:	1405d363          	bgez	a1,9ac <USBFS_IRQHandler+0x60c>
					len = ( USBFS_SetupReqLen > DEF_USBD_UEP0_SIZE )? DEF_USBD_UEP0_SIZE : USBFS_SetupReqLen;
     86a:	04000793          	li	a5,64
     86e:	0157d363          	bge	a5,s5,874 <USBFS_IRQHandler+0x4d4>
     872:	8abe                	mv	s5,a5
					UEP_CTRL_LEN(0) = len;
     874:	0ac2                	slli	s5,s5,0x10
     876:	400237b7          	lui	a5,0x40023
     87a:	010ada93          	srli	s5,s5,0x10
     87e:	43579023          	sh	s5,1056(a5) # 40023420 <_eusrstack+0x2001e420>
					UEP_CTRL_TX(0) = USBFS_UEP_T_RES_ACK;
     882:	42079123          	sh	zero,1058(a5)
     886:	b67d                	j	434 <USBFS_IRQHandler+0x94>
						for( ; e != e_end; e++ )
     888:	07b1                	addi	a5,a5,12
     88a:	40468713          	addi	a4,a3,1028 # 1404 <_data_lma>
     88e:	fae798e3          	bne	a5,a4,83e <USBFS_IRQHandler+0x49e>
     892:	bdf9                	j	770 <USBFS_IRQHandler+0x3d0>
						ctrl0buff[0] = ctx->USBFS_DevConfig;
     894:	00844783          	lbu	a5,8(s0)
						if( ctx->USBFS_SetupReqLen > 1 )
     898:	00245703          	lhu	a4,2(s0)
						ctrl0buff[0] = ctx->USBFS_DevConfig;
     89c:	00f40823          	sb	a5,16(s0)
						if( ctx->USBFS_SetupReqLen > 1 )
     8a0:	4785                	li	a5,1
     8a2:	fae7ffe3          	bgeu	a5,a4,860 <USBFS_IRQHandler+0x4c0>
							ctx->USBFS_SetupReqLen = 1;
     8a6:	00f41123          	sh	a5,2(s0)
     8aa:	bf5d                	j	860 <USBFS_IRQHandler+0x4c0>
						ctx->USBFS_DevConfig = (uint8_t)( ctx->USBFS_IndexValue & 0xFF );
     8ac:	405c                	lw	a5,4(s0)
     8ae:	00f40423          	sb	a5,8(s0)
						ctx->USBFS_DevEnumStatus = 0x01;
     8b2:	4785                	li	a5,1
     8b4:	00f405a3          	sb	a5,11(s0)
						break;
     8b8:	b765                	j	860 <USBFS_IRQHandler+0x4c0>
						if( ( USBFS_SetupReqType & USB_REQ_RECIP_MASK ) == USB_REQ_RECIP_ENDP )
     8ba:	01fbf713          	andi	a4,s7,31
     8be:	4789                	li	a5,2
     8c0:	eaf718e3          	bne	a4,a5,770 <USBFS_IRQHandler+0x3d0>
							if( (uint8_t)( USBFS_IndexValue & 0xFF ) == USB_REQ_FEAT_ENDP_HALT )
     8c4:	0ffa7a13          	zext.b	s4,s4
     8c8:	ea0a14e3          	bnez	s4,770 <USBFS_IRQHandler+0x3d0>
								if( ep < FUSB_CONFIG_EPS ) 
     8cc:	00cb7b13          	andi	s6,s6,12
     8d0:	ea0b10e3          	bnez	s6,770 <USBFS_IRQHandler+0x3d0>
									if( USBFS_SetupReqIndex & DEF_UEP_IN  && ctx->endpoint_mode[ep] == -1 ) UEP_CTRL_TX(ep) = USBFS_UEP_T_RES_NAK;
     8d4:	0809f993          	andi	s3,s3,128
     8d8:	e8098ce3          	beqz	s3,770 <USBFS_IRQHandler+0x3d0>
     8dc:	04448793          	addi	a5,s1,68
     8e0:	078a                	slli	a5,a5,0x2
     8e2:	97a2                	add	a5,a5,s0
     8e4:	4394                	lw	a3,0(a5)
     8e6:	57fd                	li	a5,-1
     8e8:	e8f694e3          	bne	a3,a5,770 <USBFS_IRQHandler+0x3d0>
     8ec:	400237b7          	lui	a5,0x40023
     8f0:	048a                	slli	s1,s1,0x2
     8f2:	42278793          	addi	a5,a5,1058 # 40023422 <_eusrstack+0x2001e422>
     8f6:	94be                	add	s1,s1,a5
     8f8:	00e49023          	sh	a4,0(s1)
						break;
     8fc:	b795                	j	860 <USBFS_IRQHandler+0x4c0>
						else if( ( USBFS_SetupReqType & USB_REQ_RECIP_MASK ) == USB_REQ_RECIP_ENDP )
     8fe:	01fbf793          	andi	a5,s7,31
     902:	4709                	li	a4,2
     904:	e6e796e3          	bne	a5,a4,770 <USBFS_IRQHandler+0x3d0>
							if( (uint8_t)( USBFS_IndexValue & 0xFF ) == USB_REQ_FEAT_ENDP_HALT )
     908:	0ffa7a13          	zext.b	s4,s4
     90c:	e60a12e3          	bnez	s4,770 <USBFS_IRQHandler+0x3d0>
								if( ep < FUSB_CONFIG_EPS )
     910:	00acd793          	srli	a5,s9,0xa
     914:	8b8d                	andi	a5,a5,3
     916:	f7a9                	bnez	a5,860 <USBFS_IRQHandler+0x4c0>
									if( (USBFS_SetupReqIndex & DEF_UEP_IN) && ctx->endpoint_mode[ep] == -1 )UEP_CTRL_TX(ep) = ( UEP_CTRL_TX(ep) & ~USBFS_UEP_T_RES_MASK ) | USBFS_UEP_T_RES_STALL;
     918:	0809f993          	andi	s3,s3,128
     91c:	e4098ae3          	beqz	s3,770 <USBFS_IRQHandler+0x3d0>
     920:	04448793          	addi	a5,s1,68
     924:	078a                	slli	a5,a5,0x2
     926:	97a2                	add	a5,a5,s0
     928:	4398                	lw	a4,0(a5)
     92a:	57fd                	li	a5,-1
     92c:	e4f712e3          	bne	a4,a5,770 <USBFS_IRQHandler+0x3d0>
     930:	400237b7          	lui	a5,0x40023
     934:	42278793          	addi	a5,a5,1058 # 40023422 <_eusrstack+0x2001e422>
     938:	048a                	slli	s1,s1,0x2
     93a:	94be                	add	s1,s1,a5
     93c:	0004d783          	lhu	a5,0(s1)
     940:	0037e793          	ori	a5,a5,3
     944:	00f49023          	sh	a5,0(s1)
     948:	bf21                	j	860 <USBFS_IRQHandler+0x4c0>
						ctrl0buff[0] = 0x00;
     94a:	00040823          	sb	zero,16(s0)
						if( USBFS_SetupReqLen > 1 ) USBFS_SetupReqLen = 1;
     94e:	f18059e3          	blez	s8,860 <USBFS_IRQHandler+0x4c0>
     952:	4a85                	li	s5,1
     954:	b731                	j	860 <USBFS_IRQHandler+0x4c0>
						ctrl0buff[0] = 0x00;
     956:	00041823          	sh	zero,16(s0)
						if( ( USBFS_SetupReqType & USB_REQ_RECIP_MASK ) == USB_REQ_RECIP_DEVICE )
     95a:	01fbf793          	andi	a5,s7,31
     95e:	c3b1                	beqz	a5,9a2 <USBFS_IRQHandler+0x602>
						else if( ( USBFS_SetupReqType & USB_REQ_RECIP_MASK ) == USB_REQ_RECIP_ENDP )
     960:	4709                	li	a4,2
     962:	e0e797e3          	bne	a5,a4,770 <USBFS_IRQHandler+0x3d0>
							if( ep < FUSB_CONFIG_EPS )
     966:	00cb7b13          	andi	s6,s6,12
     96a:	e00b13e3          	bnez	s6,770 <USBFS_IRQHandler+0x3d0>
								if( USBFS_SetupReqIndex & DEF_UEP_IN && ctx->endpoint_mode[ep] == -1 ) ctrl0buff[0] = ( UEP_CTRL_TX(ep) & USBFS_UEP_T_RES_MASK ) == USBFS_UEP_T_RES_STALL;
     96e:	0809f993          	andi	s3,s3,128
     972:	de098fe3          	beqz	s3,770 <USBFS_IRQHandler+0x3d0>
     976:	04448793          	addi	a5,s1,68
     97a:	078a                	slli	a5,a5,0x2
     97c:	97a2                	add	a5,a5,s0
     97e:	4398                	lw	a4,0(a5)
     980:	57fd                	li	a5,-1
     982:	def717e3          	bne	a4,a5,770 <USBFS_IRQHandler+0x3d0>
     986:	400237b7          	lui	a5,0x40023
     98a:	42278793          	addi	a5,a5,1058 # 40023422 <_eusrstack+0x2001e422>
     98e:	048a                	slli	s1,s1,0x2
     990:	94be                	add	s1,s1,a5
     992:	0004d783          	lhu	a5,0(s1)
     996:	8b8d                	andi	a5,a5,3
     998:	17f5                	addi	a5,a5,-3
     99a:	0017b793          	seqz	a5,a5
     99e:	00f40823          	sb	a5,16(s0)
						if( USBFS_SetupReqLen > 2 )
     9a2:	4789                	li	a5,2
     9a4:	eb87dee3          	bge	a5,s8,860 <USBFS_IRQHandler+0x4c0>
     9a8:	8abe                	mv	s5,a5
     9aa:	bd5d                	j	860 <USBFS_IRQHandler+0x4c0>
					if( USBFS_SetupReqLen == 0 )
     9ac:	400237b7          	lui	a5,0x40023
     9b0:	42278793          	addi	a5,a5,1058 # 40023422 <_eusrstack+0x2001e422>
						UEP_CTRL_TX(0) = CHECK_USBFS_UEP_T_AUTO_TOG | USBFS_UEP_R_RES_ACK | USBFS_UEP_R_TOG;
     9b4:	09000713          	li	a4,144
					if( USBFS_SetupReqLen == 0 )
     9b8:	000a9863          	bnez	s5,9c8 <USBFS_IRQHandler+0x628>
						UEP_CTRL_LEN(0) = 0;
     9bc:	40023737          	lui	a4,0x40023
     9c0:	42071023          	sh	zero,1056(a4) # 40023420 <_eusrstack+0x2001e420>
						UEP_CTRL_TX(0) = USBFS_UEP_T_RES_ACK | USBFS_UEP_T_TOG;
     9c4:	04000713          	li	a4,64
						UEP_CTRL_TX(0) = CHECK_USBFS_UEP_T_AUTO_TOG | USBFS_UEP_R_RES_ACK | USBFS_UEP_R_TOG;
     9c8:	00e79023          	sh	a4,0(a5)
     9cc:	b4a5                	j	434 <USBFS_IRQHandler+0x94>
	else if( intfgst & CRB_UIF_BUS_RST )
     9ce:	001cf793          	andi	a5,s9,1
     9d2:	cb9d                	beqz	a5,a08 <USBFS_IRQHandler+0x668>
		if( usb_debug ) printf("[USB] RESET\n");
     9d4:	c0c1c783          	lbu	a5,-1012(gp) # 20000008 <usb_debug>
     9d8:	c789                	beqz	a5,9e2 <USBFS_IRQHandler+0x642>
     9da:	6505                	lui	a0,0x1
     9dc:	30050513          	addi	a0,a0,768 # 1300 <language+0xc0>
     9e0:	2e09                	jal	cf2 <puts>
		ctx->USBFS_DevConfig = 0;
     9e2:	200017b7          	lui	a5,0x20001
     9e6:	d4078793          	addi	a5,a5,-704 # 20000d40 <USBFSCTX>
     9ea:	00079423          	sh	zero,8(a5)
		ctx->USBFS_DevSleepStatus = 0;
     9ee:	00078523          	sb	zero,10(a5)
		ctx->USBFS_DevEnumStatus = 0;
     9f2:	000785a3          	sb	zero,11(a5)
		USBFS->DEV_ADDR = 0;
     9f6:	40023437          	lui	s0,0x40023
     9fa:	400401a3          	sb	zero,1027(s0) # 40023403 <_eusrstack+0x2001e403>
		USBFS_InternalFinishSetup();
     9fe:	383d                	jal	23c <USBFS_InternalFinishSetup>
		USBFS->INT_FG = CRB_UIF_BUS_RST;
     a00:	4785                	li	a5,1
     a02:	40f40323          	sb	a5,1030(s0)
     a06:	bc25                	j	43e <USBFS_IRQHandler+0x9e>
	else if( intfgst & CRB_UIF_SUSPEND )
     a08:	004cf793          	andi	a5,s9,4
     a0c:	cf9d                	beqz	a5,a4a <USBFS_IRQHandler+0x6aa>
		if( usb_debug ) printf("[USB] SUSPEND\n");
     a0e:	c0c1c783          	lbu	a5,-1012(gp) # 20000008 <usb_debug>
     a12:	c789                	beqz	a5,a1c <USBFS_IRQHandler+0x67c>
     a14:	6505                	lui	a0,0x1
     a16:	30c50513          	addi	a0,a0,780 # 130c <language+0xcc>
     a1a:	2ce1                	jal	cf2 <puts>
		USBFS->INT_FG = USBFS_UMS_SUSPEND;
     a1c:	4791                	li	a5,4
     a1e:	40023437          	lui	s0,0x40023
     a22:	40f40323          	sb	a5,1030(s0) # 40023406 <_eusrstack+0x2001e406>
		Delay_Us(10);
     a26:	387d                	jal	2e4 <DelaySysTick.constprop.0>
		if( USBFS->MIS_ST & USBFS_UMS_SUSPEND )
     a28:	40544683          	lbu	a3,1029(s0)
			ctx->USBFS_DevSleepStatus |= 0x02;
     a2c:	20001737          	lui	a4,0x20001
     a30:	d4070713          	addi	a4,a4,-704 # 20000d40 <USBFSCTX>
		if( USBFS->MIS_ST & USBFS_UMS_SUSPEND )
     a34:	8a91                	andi	a3,a3,4
			ctx->USBFS_DevSleepStatus |= 0x02;
     a36:	00a74783          	lbu	a5,10(a4)
		if( USBFS->MIS_ST & USBFS_UMS_SUSPEND )
     a3a:	c691                	beqz	a3,a46 <USBFS_IRQHandler+0x6a6>
			ctx->USBFS_DevSleepStatus |= 0x02;
     a3c:	0027e793          	ori	a5,a5,2
			ctx->USBFS_DevSleepStatus &= ~0x02;
     a40:	00f70523          	sb	a5,10(a4)
     a44:	baed                	j	43e <USBFS_IRQHandler+0x9e>
     a46:	9bf5                	andi	a5,a5,-3
     a48:	bfe5                	j	a40 <USBFS_IRQHandler+0x6a0>
			USBFS->INT_FG = intfgst & 0xff;
     a4a:	400237b7          	lui	a5,0x40023
     a4e:	0ffcf713          	zext.b	a4,s9
     a52:	40e78323          	sb	a4,1030(a5) # 40023406 <_eusrstack+0x2001e406>
			if( usb_debug) printf("[USB] intfgst = %04x\n",intfgst);
     a56:	c0c1c783          	lbu	a5,-1012(gp) # 20000008 <usb_debug>
     a5a:	9e0782e3          	beqz	a5,43e <USBFS_IRQHandler+0x9e>
     a5e:	6505                	lui	a0,0x1
     a60:	85e6                	mv	a1,s9
     a62:	31c50513          	addi	a0,a0,796 # 131c <language+0xdc>
     a66:	2c75                	jal	d22 <printf>
}
     a68:	bad9                	j	43e <USBFS_IRQHandler+0x9e>

00000a6a <strlen>:
	for (; *s; s++);
     a6a:	87aa                	mv	a5,a0
     a6c:	0007c703          	lbu	a4,0(a5)
     a70:	e701                	bnez	a4,a78 <strlen+0xe>
}
     a72:	40a78533          	sub	a0,a5,a0
     a76:	8082                	ret
	for (; *s; s++);
     a78:	0785                	addi	a5,a5,1
     a7a:	bfcd                	j	a6c <strlen+0x2>

00000a7c <mini_vpprintf>:
{
     a7c:	7175                	addi	sp,sp,-144
     a7e:	c522                	sw	s0,136(sp)
     a80:	d2e6                	sw	s9,100(sp)
     a82:	c706                	sw	ra,140(sp)
     a84:	c326                	sw	s1,132(sp)
     a86:	c14a                	sw	s2,128(sp)
     a88:	dece                	sw	s3,124(sp)
     a8a:	dcd2                	sw	s4,120(sp)
     a8c:	dad6                	sw	s5,116(sp)
     a8e:	d8da                	sw	s6,112(sp)
     a90:	d6de                	sw	s7,108(sp)
     a92:	d4e2                	sw	s8,104(sp)
     a94:	d0ea                	sw	s10,96(sp)
     a96:	ceee                	sw	s11,92(sp)
     a98:	8432                	mv	s0,a2
     a9a:	8cb6                	mv	s9,a3
	if(puts == (void*)0) {
     a9c:	e131                	bnez	a0,ae0 <mini_vpprintf+0x64>
		puts = _puts; buf = (void*)0;
     a9e:	4901                	li	s2,0
     aa0:	16a00493          	li	s1,362
	int n = 0;
     aa4:	4981                	li	s3,0
		if (ch!='%') {
     aa6:	02500a93          	li	s5,37
			if (ch == '0') pad_char = '0';
     aaa:	03000a13          	li	s4,48
			while (ch >= '0' && ch <= '9') {
     aae:	4b25                	li	s6,9
				pad_to = pad_to * 10 + (ch - '0');
     ab0:	4ba9                	li	s7,10
	while ((ch=*(fmt++))) {
     ab2:	00044783          	lbu	a5,0(s0)
     ab6:	00140d13          	addi	s10,s0,1
     aba:	00f10fa3          	sb	a5,31(sp)
     abe:	e785                	bnez	a5,ae6 <mini_vpprintf+0x6a>
}
     ac0:	40ba                	lw	ra,140(sp)
     ac2:	442a                	lw	s0,136(sp)
     ac4:	449a                	lw	s1,132(sp)
     ac6:	490a                	lw	s2,128(sp)
     ac8:	5a66                	lw	s4,120(sp)
     aca:	5ad6                	lw	s5,116(sp)
     acc:	5b46                	lw	s6,112(sp)
     ace:	5bb6                	lw	s7,108(sp)
     ad0:	5c26                	lw	s8,104(sp)
     ad2:	5c96                	lw	s9,100(sp)
     ad4:	5d06                	lw	s10,96(sp)
     ad6:	4df6                	lw	s11,92(sp)
     ad8:	854e                	mv	a0,s3
     ada:	59f6                	lw	s3,124(sp)
     adc:	6149                	addi	sp,sp,144
     ade:	8082                	ret
     ae0:	84aa                	mv	s1,a0
     ae2:	892e                	mv	s2,a1
     ae4:	b7c1                	j	aa4 <mini_vpprintf+0x28>
		if (ch!='%') {
     ae6:	01578c63          	beq	a5,s5,afe <mini_vpprintf+0x82>
			len = puts(&ch, len, buf);
     aea:	864a                	mv	a2,s2
     aec:	4585                	li	a1,1
     aee:	01f10513          	addi	a0,sp,31
     af2:	9482                	jalr	s1
     af4:	8c66                	mv	s8,s9
	while ((ch=*(fmt++))) {
     af6:	846a                	mv	s0,s10
		n = n + len;
     af8:	99aa                	add	s3,s3,a0
     afa:	8ce2                	mv	s9,s8
     afc:	bf5d                	j	ab2 <mini_vpprintf+0x36>
			ch=*(fmt++);
     afe:	00144703          	lbu	a4,1(s0)
     b02:	00240793          	addi	a5,s0,2
			if (ch == '0') pad_char = '0';
     b06:	8d52                	mv	s10,s4
			ch=*(fmt++);
     b08:	00e10fa3          	sb	a4,31(sp)
			if (ch == '0') pad_char = '0';
     b0c:	07471e63          	bne	a4,s4,b88 <mini_vpprintf+0x10c>
				ch=*(fmt++);
     b10:	843e                	mv	s0,a5
     b12:	4681                	li	a3,0
     b14:	4781                	li	a5,0
     b16:	a801                	j	b26 <mini_vpprintf+0xaa>
				pad_to = pad_to * 10 + (ch - '0');
     b18:	037787b3          	mul	a5,a5,s7
				ch=*(fmt++);
     b1c:	00044703          	lbu	a4,0(s0)
     b20:	0405                	addi	s0,s0,1
     b22:	4685                	li	a3,1
				pad_to = pad_to * 10 + (ch - '0');
     b24:	97b2                	add	a5,a5,a2
			while (ch >= '0' && ch <= '9') {
     b26:	fd070613          	addi	a2,a4,-48
     b2a:	0ff67593          	zext.b	a1,a2
     b2e:	febb75e3          	bgeu	s6,a1,b18 <mini_vpprintf+0x9c>
     b32:	c299                	beqz	a3,b38 <mini_vpprintf+0xbc>
     b34:	00e10fa3          	sb	a4,31(sp)
			if(pad_to > (signed int) sizeof(bf)) {
     b38:	46e1                	li	a3,24
     b3a:	8dbe                	mv	s11,a5
     b3c:	00f6d363          	bge	a3,a5,b42 <mini_vpprintf+0xc6>
     b40:	8db6                	mv	s11,a3
			if (ch == 'l') {
     b42:	06c00693          	li	a3,108
			char l = 0;
     b46:	4601                	li	a2,0
			if (ch == 'l') {
     b48:	00d71863          	bne	a4,a3,b58 <mini_vpprintf+0xdc>
				ch=*(fmt++);
     b4c:	00044703          	lbu	a4,0(s0)
				l = 1;
     b50:	4605                	li	a2,1
				ch=*(fmt++);
     b52:	0405                	addi	s0,s0,1
     b54:	00e10fa3          	sb	a4,31(sp)
			switch (ch) {
     b58:	01f14683          	lbu	a3,31(sp)
     b5c:	06400713          	li	a4,100
     b60:	06e68363          	beq	a3,a4,bc6 <mini_vpprintf+0x14a>
     b64:	02d76563          	bltu	a4,a3,b8e <mini_vpprintf+0x112>
     b68:	05800793          	li	a5,88
     b6c:	0af68063          	beq	a3,a5,c0c <mini_vpprintf+0x190>
     b70:	06300793          	li	a5,99
     b74:	0af68e63          	beq	a3,a5,c30 <mini_vpprintf+0x1b4>
     b78:	d6a1                	beqz	a3,ac0 <mini_vpprintf+0x44>
					len = puts(&ch, len, buf);
     b7a:	864a                	mv	a2,s2
     b7c:	4585                	li	a1,1
     b7e:	01f10513          	addi	a0,sp,31
     b82:	9482                	jalr	s1
					break;
     b84:	8c66                	mv	s8,s9
     b86:	bf8d                	j	af8 <mini_vpprintf+0x7c>
			char pad_char = ' ';
     b88:	02000d13          	li	s10,32
     b8c:	b751                	j	b10 <mini_vpprintf+0x94>
			switch (ch) {
     b8e:	07500713          	li	a4,117
     b92:	02e68a63          	beq	a3,a4,bc6 <mini_vpprintf+0x14a>
     b96:	07800713          	li	a4,120
     b9a:	06e68963          	beq	a3,a4,c0c <mini_vpprintf+0x190>
     b9e:	07300713          	li	a4,115
     ba2:	fce69ce3          	bne	a3,a4,b7a <mini_vpprintf+0xfe>
					ptr = va_arg(va, char*);
     ba6:	004c8c13          	addi	s8,s9,4
     baa:	000cac83          	lw	s9,0(s9)
     bae:	c63e                	sw	a5,12(sp)
					len = mini_strlen(ptr);
     bb0:	8566                	mv	a0,s9
     bb2:	3d65                	jal	a6a <strlen>
					if (pad_to > 0) {
     bb4:	47b2                	lw	a5,12(sp)
					len = mini_strlen(ptr);
     bb6:	85aa                	mv	a1,a0
					if (pad_to > 0) {
     bb8:	08f05963          	blez	a5,c4a <mini_vpprintf+0x1ce>
						len = mini_pad(ptr, len, pad_char, pad_to, bf);
     bbc:	1838                	addi	a4,sp,56
     bbe:	86ee                	mv	a3,s11
     bc0:	866a                	mv	a2,s10
     bc2:	8566                	mv	a0,s9
     bc4:	a025                	j	bec <mini_vpprintf+0x170>
						len = mini_itoa(va_arg(va, unsigned long), 10, 0, (ch=='u'), bf2);
     bc6:	004c8c13          	addi	s8,s9,4
					if(l) {
     bca:	ca05                	beqz	a2,bfa <mini_vpprintf+0x17e>
						len = mini_itoa(va_arg(va, unsigned long), 10, 0, (ch=='u'), bf2);
     bcc:	f8b68693          	addi	a3,a3,-117
     bd0:	1018                	addi	a4,sp,32
     bd2:	0016b693          	seqz	a3,a3
     bd6:	000ca503          	lw	a0,0(s9)
     bda:	4601                	li	a2,0
     bdc:	45a9                	li	a1,10
     bde:	dceff0ef          	jal	1ac <mini_itoa.part.0>
					len = mini_pad(bf2, len, pad_char, pad_to, bf);
     be2:	1838                	addi	a4,sp,56
     be4:	86ee                	mv	a3,s11
     be6:	866a                	mv	a2,s10
     be8:	85aa                	mv	a1,a0
					len = mini_pad(bf2, len, pad_char, pad_to, bf);
     bea:	1008                	addi	a0,sp,32
     bec:	cf4ff0ef          	jal	e0 <mini_pad>
     bf0:	85aa                	mv	a1,a0
					len = puts(bf, len, buf);
     bf2:	864a                	mv	a2,s2
     bf4:	1828                	addi	a0,sp,56
     bf6:	9482                	jalr	s1
					break;
     bf8:	b701                	j	af8 <mini_vpprintf+0x7c>
						if(ch == 'u') {
     bfa:	07500793          	li	a5,117
     bfe:	1018                	addi	a4,sp,32
     c00:	00f69463          	bne	a3,a5,c08 <mini_vpprintf+0x18c>
	if (radix > 16)
     c04:	4685                	li	a3,1
     c06:	bfc1                	j	bd6 <mini_vpprintf+0x15a>
     c08:	4681                	li	a3,0
     c0a:	b7f1                	j	bd6 <mini_vpprintf+0x15a>
					if(l) {
     c0c:	000ca503          	lw	a0,0(s9)
						len = mini_itoa(va_arg(va, unsigned long), 16, (ch=='X'), 1, bf2);
     c10:	fa868613          	addi	a2,a3,-88
     c14:	1018                	addi	a4,sp,32
     c16:	4685                	li	a3,1
     c18:	00163613          	seqz	a2,a2
     c1c:	45c1                	li	a1,16
     c1e:	d8eff0ef          	jal	1ac <mini_itoa.part.0>
						len = mini_itoa(va_arg(va, unsigned long), 10, 0, (ch=='u'), bf2);
     c22:	004c8c13          	addi	s8,s9,4
	if (radix > 16)
     c26:	85aa                	mv	a1,a0
					len = mini_pad(bf2, len, pad_char, pad_to, bf);
     c28:	1838                	addi	a4,sp,56
     c2a:	86ee                	mv	a3,s11
     c2c:	866a                	mv	a2,s10
     c2e:	bf75                	j	bea <mini_vpprintf+0x16e>
					ch = (char)(va_arg(va, int));
     c30:	000ca783          	lw	a5,0(s9)
     c34:	004c8c13          	addi	s8,s9,4
					len = mini_pad(&ch, 1, pad_char, pad_to, bf);
     c38:	1838                	addi	a4,sp,56
					ch = (char)(va_arg(va, int));
     c3a:	00f10fa3          	sb	a5,31(sp)
					len = mini_pad(&ch, 1, pad_char, pad_to, bf);
     c3e:	86ee                	mv	a3,s11
     c40:	866a                	mv	a2,s10
     c42:	4585                	li	a1,1
     c44:	01f10513          	addi	a0,sp,31
     c48:	b755                	j	bec <mini_vpprintf+0x170>
						len = puts(ptr, len, buf);
     c4a:	864a                	mv	a2,s2
     c4c:	8566                	mv	a0,s9
     c4e:	b765                	j	bf6 <mini_vpprintf+0x17a>

00000c50 <strcpy>:
	for (; (*d=*s); s++, d++);
     c50:	87aa                	mv	a5,a0
     c52:	0005c703          	lbu	a4,0(a1)
     c56:	00e78023          	sb	a4,0(a5)
     c5a:	e311                	bnez	a4,c5e <strcpy+0xe>
}
     c5c:	8082                	ret
	for (; (*d=*s); s++, d++);
     c5e:	0585                	addi	a1,a1,1
     c60:	0785                	addi	a5,a5,1
     c62:	bfc5                	j	c52 <strcpy+0x2>

00000c64 <memcpy>:
	for (; n; n--) *d++ = *s++;
     c64:	4781                	li	a5,0
     c66:	00f61363          	bne	a2,a5,c6c <memcpy+0x8>
}
     c6a:	8082                	ret
	for (; n; n--) *d++ = *s++;
     c6c:	00f58733          	add	a4,a1,a5
     c70:	00074683          	lbu	a3,0(a4)
     c74:	00f50733          	add	a4,a0,a5
     c78:	0785                	addi	a5,a5,1
     c7a:	00d70023          	sb	a3,0(a4)
     c7e:	b7e5                	j	c66 <memcpy+0x2>

00000c80 <write_cdc>:
}

// Disable Interrupt (by interrupt number)
RV_STATIC_INLINE void NVIC_DisableIRQ(IRQn_Type IRQn)
{
	NVIC->IRER[((uint32_t)(IRQn) >> 5)] = (1 << ((uint32_t)(IRQn) & 0x1F));
     c80:	e000e7b7          	lui	a5,0xe000e
     c84:	6709                	lui	a4,0x2
     c86:	18e7a223          	sw	a4,388(a5) # e000e184 <_eusrstack+0xc0009184>
	//Ta implementacja bazuje na buforze koowym takim skopanym troche
	// dokadamy tylko do maks napenienia bufora,
	//
	//potem danych nie dodajemy. Jak caoc zostanie wysana to bufor leci od pocztku
	NVIC_DisableIRQ(USB_IRQn);
	if((len+cdc.rx_remain) < UART_RX_BUF_SIZE)
     c8a:	200017b7          	lui	a5,0x20001
     c8e:	d0c78793          	addi	a5,a5,-756 # 20000d0c <cdc>
     c92:	4bd8                	lw	a4,20(a5)
     c94:	7ff00693          	li	a3,2047
     c98:	972e                	add	a4,a4,a1
     c9a:	02e6ec63          	bltu	a3,a4,cd2 <write_cdc+0x52>
	{
		
		uint8_t *buf_empty_part = (uint8_t*)(uart_rx_buffer + cdc.rx_pos+cdc.rx_remain);
     c9e:	4bd8                	lw	a4,20(a5)
     ca0:	4b94                	lw	a3,16(a5)
     ca2:	862e                	mv	a2,a1
{
     ca4:	1141                	addi	sp,sp,-16
		uint8_t *buf_empty_part = (uint8_t*)(uart_rx_buffer + cdc.rx_pos+cdc.rx_remain);
     ca6:	9736                	add	a4,a4,a3
		cdc.rx_remain += len;
     ca8:	4bd4                	lw	a3,20(a5)
{
     caa:	c606                	sw	ra,12(sp)
		cdc.rx_timeout = 0;
     cac:	0007ae23          	sw	zero,28(a5)
		cdc.rx_remain += len;
     cb0:	96ae                	add	a3,a3,a1
		memcpy(buf_empty_part, data, len);
     cb2:	85aa                	mv	a1,a0
     cb4:	20000537          	lui	a0,0x20000
     cb8:	10c50513          	addi	a0,a0,268 # 2000010c <uart_rx_buffer>
     cbc:	953a                	add	a0,a0,a4
		cdc.rx_remain += len;
     cbe:	cbd4                	sw	a3,20(a5)
		memcpy(buf_empty_part, data, len);
     cc0:	3755                	jal	c64 <memcpy>
		
	}
	NVIC_EnableIRQ(USB_IRQn);
}
     cc2:	40b2                	lw	ra,12(sp)
	NVIC->IENR[((uint32_t)(IRQn) >> 5)] = (1 << ((uint32_t)(IRQn) & 0x1F));
     cc4:	e000e7b7          	lui	a5,0xe000e
     cc8:	6709                	lui	a4,0x2
     cca:	10e7a223          	sw	a4,260(a5) # e000e104 <_eusrstack+0xc0009104>
     cce:	0141                	addi	sp,sp,16
     cd0:	8082                	ret
     cd2:	e000e7b7          	lui	a5,0xe000e
     cd6:	6709                	lui	a4,0x2
     cd8:	10e7a223          	sw	a4,260(a5) # e000e104 <_eusrstack+0xc0009104>
     cdc:	8082                	ret

00000cde <__puts_cdc>:

static int __puts_cdc( char *s, int len, void *buf )
{
     cde:	1141                	addi	sp,sp,-16
     ce0:	c422                	sw	s0,8(sp)
     ce2:	c606                	sw	ra,12(sp)
     ce4:	842e                	mv	s0,a1
	(void)buf;//To zawiera wskanika na oryginalny string z printf

	write_cdc((uint8_t*)s, len);
     ce6:	3f69                	jal	c80 <write_cdc>
	return len;
}
     ce8:	40b2                	lw	ra,12(sp)
     cea:	8522                	mv	a0,s0
     cec:	4422                	lw	s0,8(sp)
     cee:	0141                	addi	sp,sp,16
     cf0:	8082                	ret

00000cf2 <puts>:
{
     cf2:	1141                	addi	sp,sp,-16
     cf4:	c606                	sw	ra,12(sp)
	int sl = strlen( s );
     cf6:	3b95                	jal	a6a <strlen>
}
     cf8:	40b2                	lw	ra,12(sp)
     cfa:	0505                	addi	a0,a0,1
     cfc:	0141                	addi	sp,sp,16
     cfe:	8082                	ret

00000d00 <SystemInit>:
		FLASH->ACTLR = FLASH_ACTLR_LATENCY_1;
	#else
		FLASH->ACTLR = FLASH_ACTLR_LATENCY_0;
	#endif
#elif defined(CH32X03x)
	FLASH->ACTLR = FLASH_ACTLR_LATENCY_2;                   // +2 Cycle Latency (Recommended per TRM)
     d00:	400227b7          	lui	a5,0x40022
     d04:	4709                	li	a4,2
     d06:	c398                	sw	a4,0(a5)
	#endif
	#if defined(FUNCONF_USE_PLL) && FUNCONF_USE_PLL
		RCC->CFGR0 = BASE_CFGR0;
		RCC->CTLR  = BASE_CTLR | RCC_HSION | RCC_PLLON; 			// Use HSI, enable PLL.
	#else
		RCC->CFGR0 = RCC_HPRE_DIV1;                               	// PLLCLK = HCLK = SYSCLK = APB1
     d08:	400217b7          	lui	a5,0x40021
		RCC->CTLR  = BASE_CTLR | RCC_HSION;     					// Use HSI, Only.
     d0c:	00080737          	lui	a4,0x80
		RCC->CFGR0 = RCC_HPRE_DIV1;                               	// PLLCLK = HCLK = SYSCLK = APB1
     d10:	0007a223          	sw	zero,4(a5) # 40021004 <_eusrstack+0x2001c004>
		RCC->CTLR  = BASE_CTLR | RCC_HSION;     					// Use HSI, Only.
     d14:	08170713          	addi	a4,a4,129 # 80081 <main.c.6707df11+0x7dc41>
     d18:	c398                	sw	a4,0(a5)
		FLASH->ACTLR = FLASH_ACTLR_LATENCY_0;
	#endif
#endif

#ifndef CH5xx
	RCC->INTR  = 0x009F0000;                               // Clear PLL, CSSC, HSE, HSI and LSI ready flags.
     d1a:	009f0737          	lui	a4,0x9f0
     d1e:	c798                	sw	a4,8(a5)
	SetupDebugPrintf();
#endif
#if defined(FUNCONF_SUPPORT_CONSTRUCTORS) && FUNCONF_SUPPORT_CONSTRUCTORS
	CallConstructors();
#endif
}
     d20:	8082                	ret

00000d22 <printf>:

int printf( const char* format, ... )
{
     d22:	7139                	addi	sp,sp,-64
     d24:	d432                	sw	a2,40(sp)
	va_list args;
	va_start( args, format );
	int ret_status = mini_vpprintf(__puts_cdc, 0, format, args);
     d26:	862a                	mv	a2,a0
     d28:	6505                	lui	a0,0x1
{
     d2a:	d22e                	sw	a1,36(sp)
     d2c:	d636                	sw	a3,44(sp)
	int ret_status = mini_vpprintf(__puts_cdc, 0, format, args);
     d2e:	4581                	li	a1,0
	va_start( args, format );
     d30:	1054                	addi	a3,sp,36
	int ret_status = mini_vpprintf(__puts_cdc, 0, format, args);
     d32:	cde50513          	addi	a0,a0,-802 # cde <__puts_cdc>
{
     d36:	ce06                	sw	ra,28(sp)
     d38:	d83a                	sw	a4,48(sp)
     d3a:	da3e                	sw	a5,52(sp)
     d3c:	dc42                	sw	a6,56(sp)
     d3e:	de46                	sw	a7,60(sp)
	va_start( args, format );
     d40:	c636                	sw	a3,12(sp)
	int ret_status = mini_vpprintf(__puts_cdc, 0, format, args);
     d42:	3b2d                	jal	a7c <mini_vpprintf>
	va_end( args );
	return ret_status;
}
     d44:	40f2                	lw	ra,28(sp)
     d46:	6121                	addi	sp,sp,64
     d48:	8082                	ret

00000d4a <main>:
}

char print_buffer[255];

int main()
{
     d4a:	7139                	addi	sp,sp,-64
     d4c:	de06                	sw	ra,60(sp)
     d4e:	dc22                	sw	s0,56(sp)
     d50:	da26                	sw	s1,52(sp)
     d52:	d84a                	sw	s2,48(sp)
     d54:	d64e                	sw	s3,44(sp)
     d56:	ca66                	sw	s9,20(sp)
     d58:	c86a                	sw	s10,16(sp)
     d5a:	d452                	sw	s4,40(sp)
     d5c:	d256                	sw	s5,36(sp)
     d5e:	d05a                	sw	s6,32(sp)
     d60:	ce5e                	sw	s7,28(sp)
     d62:	cc62                	sw	s8,24(sp)
     d64:	c66e                	sw	s11,12(sp)
	SystemInit();
     d66:	3f69                	jal	d00 <SystemInit>
volatile uint64_t millis_cnt = 0;

void systick_init(void)
{

	SysTick->CTLR = 0;
     d68:	e000f7b7          	lui	a5,0xe000f
	SysTick->CMP = DELAY_MS_TIME - 1;
     d6c:	6631                	lui	a2,0xc
	SysTick->CTLR = 0;
     d6e:	0007a023          	sw	zero,0(a5) # e000f000 <_eusrstack+0xc000a000>
	SysTick->CMP = DELAY_MS_TIME - 1;
     d72:	b7f60613          	addi	a2,a2,-1153 # bb7f <main.c.6707df11+0x973f>
     d76:	cb90                	sw	a2,16(a5)
     d78:	4681                	li	a3,0
     d7a:	cbd4                	sw	a3,20(a5)
	SysTick->CNT = 0;
     d7c:	4601                	li	a2,0
     d7e:	c790                	sw	a2,8(a5)
     d80:	4681                	li	a3,0
     d82:	c7d4                	sw	a3,12(a5)
	SysTick->CTLR |= SYSTICK_CTLR_STE |  // Enable Counter
     d84:	4398                	lw	a4,0(a5)
                  SYSTICK_CTLR_STIE |  // Enable Interrupts
                  SYSTICK_CTLR_STCLK;  // Set Clock Source to HCLK/1
	
	cdc.rx_timeout = 0;
     d86:	20001437          	lui	s0,0x20001
	SysTick->CTLR |= SYSTICK_CTLR_STE |  // Enable Counter
     d8a:	00776713          	ori	a4,a4,7
     d8e:	c398                	sw	a4,0(a5)
	cdc.usb_timeout = 0;
	millis_cnt = 0;
     d90:	c0c1a223          	sw	a2,-1020(gp) # 20000000 <millis_cnt>
	cdc.rx_timeout = 0;
     d94:	d0c40713          	addi	a4,s0,-756 # 20000d0c <cdc>
     d98:	00072e23          	sw	zero,28(a4) # 9f001c <main.c.6707df11+0x9edbdc>
	cdc.usb_timeout = 0;
     d9c:	00072423          	sw	zero,8(a4)
	millis_cnt = 0;
     da0:	c0d1a423          	sw	a3,-1016(gp) # 20000004 <millis_cnt+0x4>
     da4:	e000e937          	lui	s2,0xe000e
     da8:	6785                	lui	a5,0x1
     daa:	10f92023          	sw	a5,256(s2) # e000e100 <_eusrstack+0xc0009100>
	systick_init();

	funGpioInitAll();
     dae:	400217b7          	lui	a5,0x40021
     db2:	4f94                	lw	a3,24(a5)
	USBFS->UEP2_DMA = (uintptr_t)cdc_tx_buffer;
     db4:	400234b7          	lui	s1,0x40023
     db8:	200019b7          	lui	s3,0x20001
     dbc:	01d6e693          	ori	a3,a3,29
     dc0:	cf94                	sw	a3,24(a5)
	RCC->AHBPCENR = RCC_AHBPeriph_SRAM | RCC_AHBPeriph_DMA1;
     dc2:	4695                	li	a3,5
     dc4:	cbd4                	sw	a3,20(a5)
	cdc.tx_wrap_pos = UART_TX_BUF_SIZE;
     dc6:	40000693          	li	a3,1024
     dca:	d754                	sw	a3,44(a4)
	cdc.cdc_cfg[0] = (uint8_t)(UART_DEFALT_BAUD);
     dcc:	66f1                	lui	a3,0x1c
     dce:	20068693          	addi	a3,a3,512 # 1c200 <main.c.6707df11+0x19dc0>
     dd2:	d0d42623          	sw	a3,-756(s0)
	cdc.cdc_cfg[4] = UART_DEFAULT_STOPB;
     dd6:	1e0806b7          	lui	a3,0x1e080
     dda:	c354                	sw	a3,4(a4)
	USBFS->UEP2_DMA = (uintptr_t)cdc_tx_buffer;
     ddc:	40048493          	addi	s1,s1,1024 # 40023400 <_eusrstack+0x2001e400>
     de0:	90c98713          	addi	a4,s3,-1780 # 2000090c <cdc_tx_buffer>
     de4:	cc98                	sw	a4,24(s1)
	RCC->APB2PCENR |= RCC_APB2Periph_AFIO | RCC_APB2Periph_GPIOC;
     de6:	4f98                	lw	a4,24(a5)
	AFIO->CTLR = (AFIO->CTLR & ~(UDP_PUE_MASK | UDM_PUE_MASK )) | USB_PHY_V33 | UDP_PUE_1K5 | USB_IOEN;
     de8:	400106b7          	lui	a3,0x40010
	// UEP_DMA(2) = (uintptr_t)cdc_tx_buffer;
	// init_spi();

	int last_delay = millis_cnt;
	funPinMode( PA9,     GPIO_CFGLR_OUT_10Mhz_PP ); // Set PIN_1 to output
	int state_led = 0;
     dec:	4c81                	li	s9,0
	RCC->APB2PCENR |= RCC_APB2Periph_AFIO | RCC_APB2Periph_GPIOC;
     dee:	01176713          	ori	a4,a4,17
     df2:	cf98                	sw	a4,24(a5)
	AFIO->CTLR = (AFIO->CTLR & ~(UDP_PUE_MASK | UDM_PUE_MASK )) | USB_PHY_V33 | UDP_PUE_1K5 | USB_IOEN;
     df4:	4e98                	lw	a4,24(a3)
     df6:	d0c40413          	addi	s0,s0,-756
     dfa:	90c98993          	addi	s3,s3,-1780
     dfe:	f3077713          	andi	a4,a4,-208
     e02:	0cc76713          	ori	a4,a4,204
     e06:	ce98                	sw	a4,24(a3)
	GPIOC->CFGXR = 	( GPIOC->CFGXR & ~( (0xf<<(4*0)) | (0xf<<(4*1)) ) )  |
     e08:	400116b7          	lui	a3,0x40011
     e0c:	4ed8                	lw	a4,28(a3)
     e0e:	f0077713          	andi	a4,a4,-256
     e12:	08476713          	ori	a4,a4,132
     e16:	ced8                	sw	a4,28(a3)
	GPIOC->BSXR = 1<<1; // PC17 on.
     e18:	4709                	li	a4,2
     e1a:	d298                	sw	a4,32(a3)
	RCC->AHBPCENR |= RCC_USBFS | RCC_AHBPeriph_DMA1;
     e1c:	4bd8                	lw	a4,20(a5)
     e1e:	6685                	lui	a3,0x1
     e20:	0685                	addi	a3,a3,1 # 1001 <main+0x2b7>
     e22:	8f55                	or	a4,a4,a3
     e24:	cbd8                	sw	a4,20(a5)
	USBFS->BASE_CTRL = USBFS_UC_RESET_SIE | USBFS_UC_CLR_ALL;
     e26:	4799                	li	a5,6
     e28:	00f48023          	sb	a5,0(s1)
	USBFS->BASE_CTRL = 0x00;
     e2c:	00048023          	sb	zero,0(s1)
	Delay_Us(10);
     e30:	cb4ff0ef          	jal	2e4 <DelaySysTick.constprop.0>
	USBFS->INT_EN    = USBFS_UIE_SUSPEND | USBFS_UIE_TRANSFER | USBFS_UIE_BUS_RST;
     e34:	479d                	li	a5,7
     e36:	00f48123          	sb	a5,2(s1)
	USBFS->DEV_ADDR  = 0x00;
     e3a:	000481a3          	sb	zero,3(s1)
	USBFS->BASE_CTRL = USBFS_UC_INT_BUSY | USBFS_UC_DMA_EN | USBFS_UC_DEV_PU_EN;
     e3e:	02900793          	li	a5,41
     e42:	00f48023          	sb	a5,0(s1)
	USBFS->INT_FG    = 0xff;
     e46:	57fd                	li	a5,-1
     e48:	00f48323          	sb	a5,6(s1)
	USBFS_InternalFinishSetup();
     e4c:	bf0ff0ef          	jal	23c <USBFS_InternalFinishSetup>
	USBFS->UDEV_CTRL = USBFS_UD_PD_DIS | USBFS_UD_PORT_EN;
     e50:	f8100793          	li	a5,-127
     e54:	00f480a3          	sb	a5,1(s1)
     e58:	6789                	lui	a5,0x2
     e5a:	10f92223          	sw	a5,260(s2)
	int last_delay = millis_cnt;
     e5e:	c041a703          	lw	a4,-1020(gp) # 20000000 <millis_cnt>
     e62:	c081a783          	lw	a5,-1016(gp) # 20000004 <millis_cnt+0x4>
	while(cdc.DTR_state == 0)
	{
		if((millis_cnt - last_delay) > 100)
     e66:	06400593          	li	a1,100
	int last_delay = millis_cnt;
     e6a:	893a                	mv	s2,a4
	funPinMode( PA9,     GPIO_CFGLR_OUT_10Mhz_PP ); // Set PIN_1 to output
     e6c:	40011737          	lui	a4,0x40011
     e70:	80470713          	addi	a4,a4,-2044 # 40010804 <_eusrstack+0x2000b804>
     e74:	431c                	lw	a5,0(a4)
     e76:	f0f7f793          	andi	a5,a5,-241
     e7a:	0107e793          	ori	a5,a5,16
     e7e:	c31c                	sw	a5,0(a4)
		if((millis_cnt - last_delay) > 100)
     e80:	41f95613          	srai	a2,s2,0x1f
	while(cdc.DTR_state == 0)
     e84:	03244783          	lbu	a5,50(s0)
     e88:	28078463          	beqz	a5,1110 <main+0x3c6>
     e8c:	40011a37          	lui	s4,0x40011
     e90:	800a0a13          	addi	s4,s4,-2048 # 40010800 <_eusrstack+0x2000b800>
				state_led = 0;
				funDigitalWrite( PA9,     FUN_LOW );
			}

			// int len = sprintf(print_buffer, "hello\n\r");
			int len = sprintf(print_buffer, "Before flash read\n\r");
     e94:	6b05                	lui	s6,0x1
			// funDigitalWrite( PA9,     FUN_LOW );
			write_cdc((uint8_t*)print_buffer, len);
			// printf("Before flash read\n\r");
			// flash_read_info();
			printf("Hello dssdfdsf fdfdsfsdf fds fds fsd fsd fs df ");
     e96:	6b85                	lui	s7,0x1
				ctx->tx_wrap_pos = UART_TX_BUF_SIZE;
     e98:	40000c13          	li	s8,1024
		if((millis_cnt - last_delay) > 1000)
     e9c:	c041a503          	lw	a0,-1020(gp) # 20000000 <millis_cnt>
     ea0:	c081a583          	lw	a1,-1016(gp) # 20000004 <millis_cnt+0x4>
     ea4:	41f95793          	srai	a5,s2,0x1f
     ea8:	41250733          	sub	a4,a0,s2
     eac:	00e53633          	sltu	a2,a0,a4
     eb0:	40f587b3          	sub	a5,a1,a5
     eb4:	00c79663          	bne	a5,a2,ec0 <main+0x176>
     eb8:	3e800793          	li	a5,1000
     ebc:	02e7fa63          	bgeu	a5,a4,ef0 <main+0x1a6>
			last_delay = millis_cnt;
     ec0:	c041a703          	lw	a4,-1020(gp) # 20000000 <millis_cnt>
     ec4:	c081a783          	lw	a5,-1016(gp) # 20000004 <millis_cnt+0x4>
     ec8:	893a                	mv	s2,a4
			if (state_led == 0)
     eca:	280c9663          	bnez	s9,1156 <main+0x40c>
				funDigitalWrite( PA9,     FUN_HIGH );
     ece:	20000793          	li	a5,512
     ed2:	00fa2823          	sw	a5,16(s4)
				state_led = 1;
     ed6:	4c85                	li	s9,1
			int len = sprintf(print_buffer, "Before flash read\n\r");
     ed8:	244b0593          	addi	a1,s6,580 # 1244 <language+0x4>
     edc:	c1018513          	addi	a0,gp,-1008 # 2000000c <print_buffer>
     ee0:	3b85                	jal	c50 <strcpy>
			write_cdc((uint8_t*)print_buffer, len);
     ee2:	c1018513          	addi	a0,gp,-1008 # 2000000c <print_buffer>
     ee6:	45cd                	li	a1,19
     ee8:	3b61                	jal	c80 <write_cdc>
			printf("Hello dssdfdsf fdfdsfsdf fds fds fsd fsd fs df ");
     eea:	258b8513          	addi	a0,s7,600 # 1258 <language+0x18>
     eee:	3d15                	jal	d22 <printf>
	if (ctx->txing) 
     ef0:	501c                	lw	a5,32(s0)
     ef2:	cba1                	beqz	a5,f42 <main+0x1f8>
	NVIC->IRER[((uint32_t)(IRQn) >> 5)] = (1 << ((uint32_t)(IRQn) & 0x1F));
     ef4:	e000e737          	lui	a4,0xe000e
     ef8:	6689                	lui	a3,0x2
     efa:	18d72223          	sw	a3,388(a4) # e000e184 <_eusrstack+0xc0009184>
		ctx->tx_remain -= ctx->txing;
     efe:	5418                	lw	a4,40(s0)
     f00:	8f1d                	sub	a4,a4,a5
     f02:	d418                	sw	a4,40(s0)
		ctx->tx_pos += ctx->txing;
     f04:	5058                	lw	a4,36(s0)
     f06:	97ba                	add	a5,a5,a4
		if( ctx->tx_pos & 0x3 ) ctx->tx_pos = (ctx->tx_pos + 4) & ~0x3;
     f08:	0037f713          	andi	a4,a5,3
     f0c:	c319                	beqz	a4,f12 <main+0x1c8>
     f0e:	0791                	addi	a5,a5,4 # 2004 <ch32fun.c.9f36c09d+0xa71>
     f10:	9bf1                	andi	a5,a5,-4
		ctx->tx_pos += ctx->txing;
     f12:	d05c                	sw	a5,36(s0)
		if ((ctx->tx_stop) && (!ctx->tx_remain)) {
     f14:	03044783          	lbu	a5,48(s0)
		ctx->txing = 0;
     f18:	02042023          	sw	zero,32(s0)
		if ((ctx->tx_stop) && (!ctx->tx_remain)) {
     f1c:	cf91                	beqz	a5,f38 <main+0x1ee>
     f1e:	541c                	lw	a5,40(s0)
     f20:	ef81                	bnez	a5,f38 <main+0x1ee>
	else UEP_CTRL_TX(endp) = ( UEP_CTRL_TX(endp) & ~USBFS_UEP_R_RES_MASK ) | USBFS_UEP_R_RES_ACK;
     f22:	400237b7          	lui	a5,0x40023
     f26:	42a7d703          	lhu	a4,1066(a5) # 4002342a <_eusrstack+0x2001e42a>
     f2a:	66c1                	lui	a3,0x10
     f2c:	16cd                	addi	a3,a3,-13 # fff3 <main.c.6707df11+0xdbb3>
     f2e:	8f75                	and	a4,a4,a3
     f30:	42e79523          	sh	a4,1066(a5)
			ctx->tx_stop = 0;
     f34:	02040823          	sb	zero,48(s0)
	NVIC->IENR[((uint32_t)(IRQn) >> 5)] = (1 << ((uint32_t)(IRQn) & 0x1F));
     f38:	e000e7b7          	lui	a5,0xe000e
     f3c:	6709                	lui	a4,0x2
     f3e:	10e7a223          	sw	a4,260(a5) # e000e104 <_eusrstack+0xc0009104>
	if (ctx->txing == 0 && ctx->tx_remain) 
     f42:	541c                	lw	a5,40(s0)
     f44:	cbc9                	beqz	a5,fd6 <main+0x28c>
	NVIC->IRER[((uint32_t)(IRQn) >> 5)] = (1 << ((uint32_t)(IRQn) & 0x1F));
     f46:	6709                	lui	a4,0x2
     f48:	e000e7b7          	lui	a5,0xe000e
     f4c:	18e7a223          	sw	a4,388(a5) # e000e184 <_eusrstack+0xc0009184>
			if (ctx->tx_wrap_pos <= ctx->tx_pos) 
     f50:	5454                	lw	a3,44(s0)
     f52:	5058                	lw	a4,36(s0)
     f54:	00d76963          	bltu	a4,a3,f66 <main+0x21c>
				ctx->tx_pos = 0; 
     f58:	02042223          	sw	zero,36(s0)
				ctx->tx_wrap_pos = UART_TX_BUF_SIZE;
     f5c:	03842623          	sw	s8,44(s0)
     f60:	40000693          	li	a3,1024
     f64:	4701                	li	a4,0
			if(*(cdc_tx_buffer + ctx->tx_pos) == 'r')
     f66:	00e987b3          	add	a5,s3,a4
     f6a:	0007c603          	lbu	a2,0(a5)
     f6e:	07200793          	li	a5,114
     f72:	04f61463          	bne	a2,a5,fba <main+0x270>
    FLASH->KEYR = FLASH_KEY1;
     f76:	456705b7          	lui	a1,0x45670
     f7a:	400227b7          	lui	a5,0x40022
     f7e:	12358593          	addi	a1,a1,291 # 45670123 <_eusrstack+0x2566b123>
    FLASH->KEYR = FLASH_KEY2;
     f82:	cdef9637          	lui	a2,0xcdef9
    FLASH->KEYR = FLASH_KEY1;
     f86:	c3cc                	sw	a1,4(a5)
    FLASH->KEYR = FLASH_KEY2;
     f88:	9ab60613          	addi	a2,a2,-1621 # cdef89ab <_eusrstack+0xadef39ab>
     f8c:	c3d0                	sw	a2,4(a5)
    FLASH->BOOT_MODEKEYR = FLASH_KEY1;
     f8e:	d78c                	sw	a1,40(a5)
    FLASH->BOOT_MODEKEYR = FLASH_KEY2;
     f90:	d790                	sw	a2,40(a5)
    FLASH->STATR &= ~(1<<14);
     f92:	47d0                	lw	a2,12(a5)
     f94:	75f1                	lui	a1,0xffffc
     f96:	15fd                	addi	a1,a1,-1 # ffffbfff <_eusrstack+0xdfff6fff>
     f98:	8e6d                	and	a2,a2,a1
     f9a:	c7d0                	sw	a2,12(a5)
        FLASH->STATR |= (1<<14);
     f9c:	47d0                	lw	a2,12(a5)
     f9e:	6591                	lui	a1,0x4
     fa0:	8e4d                	or	a2,a2,a1
     fa2:	c7d0                	sw	a2,12(a5)
    FLASH->CTLR |= CR_LOCK_Set;
     fa4:	4b90                	lw	a2,16(a5)
     fa6:	08066613          	ori	a2,a2,128
     faa:	cb90                	sw	a2,16(a5)
}

// Initiate a system reset request
RV_STATIC_INLINE void NVIC_SystemReset(void)
{
	NVIC->CFGR = NVIC_KEY3|(1<<7);
     fac:	beef07b7          	lui	a5,0xbeef0
     fb0:	e000e637          	lui	a2,0xe000e
     fb4:	08078793          	addi	a5,a5,128 # beef0080 <_eusrstack+0x9eeeb080>
     fb8:	c63c                	sw	a5,72(a2)
			uint32_t to_send = (ctx->tx_pos + ctx->tx_remain < ctx->tx_wrap_pos)?ctx->tx_remain:(ctx->tx_wrap_pos - ctx->tx_pos);
     fba:	541c                	lw	a5,40(s0)
     fbc:	97ba                	add	a5,a5,a4
     fbe:	40e68733          	sub	a4,a3,a4
     fc2:	00d7f363          	bgeu	a5,a3,fc8 <main+0x27e>
     fc6:	5418                	lw	a4,40(s0)
			if (to_send == 0) return;
     fc8:	c719                	beqz	a4,fd6 <main+0x28c>
			ctx->txing = to_send;
     fca:	d018                	sw	a4,32(s0)
	NVIC->IENR[((uint32_t)(IRQn) >> 5)] = (1 << ((uint32_t)(IRQn) & 0x1F));
     fcc:	e000e7b7          	lui	a5,0xe000e
     fd0:	6709                	lui	a4,0x2
     fd2:	10e7a223          	sw	a4,260(a5) # e000e104 <_eusrstack+0xc0009104>
	if (ctx->rx_remain) 
     fd6:	485c                	lw	a5,20(s0)
     fd8:	c7fd                	beqz	a5,10c6 <main+0x37c>
		if (ctx->rxing == 0) 
     fda:	00c44783          	lbu	a5,12(s0)
     fde:	18079263          	bnez	a5,1162 <main+0x418>
			if( ctx->rx_remain >= USBFS_PACKET_SIZE ) packlen = USBFS_PACKET_SIZE;
     fe2:	4854                	lw	a3,20(s0)
     fe4:	03f00713          	li	a4,63
     fe8:	04000793          	li	a5,64
     fec:	00d76863          	bltu	a4,a3,ffc <main+0x2b2>
			else if (ctx->rx_timeout >= UART_RX_TIMEOUT) packlen = ctx->rx_remain;
     ff0:	4c54                	lw	a3,28(s0)
     ff2:	4709                	li	a4,2
	uint32_t packlen = 0;
     ff4:	4781                	li	a5,0
			else if (ctx->rx_timeout >= UART_RX_TIMEOUT) packlen = ctx->rx_remain;
     ff6:	00d77363          	bgeu	a4,a3,ffc <main+0x2b2>
     ffa:	485c                	lw	a5,20(s0)
			if (packlen > (UART_RX_BUF_SIZE - ctx->rx_pos)) packlen = (UART_RX_BUF_SIZE - ctx->rx_pos);
     ffc:	480c                	lw	a1,16(s0)
     ffe:	6485                	lui	s1,0x1
    1000:	80048493          	addi	s1,s1,-2048 # 800 <USBFS_IRQHandler+0x460>
    1004:	8c8d                	sub	s1,s1,a1
    1006:	0097f363          	bgeu	a5,s1,100c <main+0x2c2>
    100a:	84be                	mv	s1,a5
			if (packlen) 
    100c:	cccd                	beqz	s1,10c6 <main+0x37c>
	NVIC->IRER[((uint32_t)(IRQn) >> 5)] = (1 << ((uint32_t)(IRQn) & 0x1F));
    100e:	e000e7b7          	lui	a5,0xe000e
    1012:	6709                	lui	a4,0x2
	if( USBFSCTX.USBFS_errata_dont_send_endpoint_in_window || USBFSCTX.USBFS_Endp_Busy[ endp ] ) return -1;
    1014:	20001db7          	lui	s11,0x20001
    1018:	18e7a223          	sw	a4,388(a5) # e000e184 <_eusrstack+0xc0009184>
    101c:	d40d8d93          	addi	s11,s11,-704 # 20000d40 <USBFSCTX>
    1020:	128dc783          	lbu	a5,296(s11)
				ctx->usb_timeout = 0;
    1024:	00042423          	sw	zero,8(s0)
    1028:	ebd1                	bnez	a5,10bc <main+0x372>
    102a:	127dc783          	lbu	a5,295(s11)
    102e:	e7d9                	bnez	a5,10bc <main+0x372>
	if( USBFSCTX.USBFS_SetupReqLen > 0 ) return USBFSCTX.USBFS_SetupReqLen;
    1030:	002dd783          	lhu	a5,2(s11)
    1034:	e7c1                	bnez	a5,10bc <main+0x372>
	if( (USBFS->INT_ST & 0x80) ) return -3;
    1036:	400237b7          	lui	a5,0x40023
    103a:	40078793          	addi	a5,a5,1024 # 40023400 <_eusrstack+0x2001e400>
    103e:	0077c783          	lbu	a5,7(a5)
    1042:	07e2                	slli	a5,a5,0x18
    1044:	87e1                	srai	a5,a5,0x18
    1046:	0607cb63          	bltz	a5,10bc <main+0x372>
			UEP_DMA( endp ) = (uintptr_t)USBFSCTX.ENDPOINTS[endp];
    104a:	20001537          	lui	a0,0x20001
    104e:	e1050713          	addi	a4,a0,-496 # 20000e10 <USBFSCTX+0xd0>
    1052:	400237b7          	lui	a5,0x40023
    1056:	40e7ae23          	sw	a4,1052(a5) # 4002341c <_eusrstack+0x2001e41c>
			copyBuffer( USBFSCTX.ENDPOINTS[endp], data, len );
    105a:	200007b7          	lui	a5,0x20000
    105e:	10c78793          	addi	a5,a5,268 # 2000010c <uart_rx_buffer>
    1062:	95be                	add	a1,a1,a5
    1064:	8626                	mv	a2,s1
    1066:	e1050513          	addi	a0,a0,-496
    106a:	3eed                	jal	c64 <memcpy>
	UEP_CTRL_LEN( endp ) = len;
    106c:	01049793          	slli	a5,s1,0x10
    1070:	40023737          	lui	a4,0x40023
    1074:	83c1                	srli	a5,a5,0x10
    1076:	42f71623          	sh	a5,1068(a4) # 4002342c <_eusrstack+0x2001e42c>
	UEP_CTRL_TX( endp ) = ( UEP_CTRL_TX( endp ) & ~USBFS_UEP_T_RES_MASK ) | USBFS_UEP_T_RES_ACK;
    107a:	87ba                	mv	a5,a4
    107c:	42e75703          	lhu	a4,1070(a4)
    1080:	66c1                	lui	a3,0x10
    1082:	16f1                	addi	a3,a3,-4 # fffc <main.c.6707df11+0xdbbc>
    1084:	8f75                	and	a4,a4,a3
    1086:	42e79723          	sh	a4,1070(a5)
	USBFSCTX.USBFS_Endp_Busy[ endp ] = 1;
    108a:	4785                	li	a5,1
    108c:	12fd83a3          	sb	a5,295(s11)
					ctx->rxing = packlen;
    1090:	0ff4f793          	zext.b	a5,s1
    1094:	00f40623          	sb	a5,12(s0)
					ctx->rx_remain -= packlen;
    1098:	485c                	lw	a5,20(s0)
					if (ctx->rx_pos >= UART_RX_BUF_SIZE) ctx->rx_pos = 0;
    109a:	7ff00713          	li	a4,2047
					ctx->rx_remain -= packlen;
    109e:	8f85                	sub	a5,a5,s1
    10a0:	c85c                	sw	a5,20(s0)
					ctx->rx_pos += packlen;
    10a2:	481c                	lw	a5,16(s0)
    10a4:	97a6                	add	a5,a5,s1
					if (ctx->rx_pos >= UART_RX_BUF_SIZE) ctx->rx_pos = 0;
    10a6:	00f77363          	bgeu	a4,a5,10ac <main+0x362>
    10aa:	4781                	li	a5,0
    10ac:	c81c                	sw	a5,16(s0)
					if (packlen == USBFS_PACKET_SIZE) ctx->zero_packet_pending = 1;
    10ae:	04000793          	li	a5,64
    10b2:	00f49563          	bne	s1,a5,10bc <main+0x372>
    10b6:	4785                	li	a5,1
    10b8:	00f40c23          	sb	a5,24(s0)
	NVIC->IENR[((uint32_t)(IRQn) >> 5)] = (1 << ((uint32_t)(IRQn) & 0x1F));
    10bc:	e000e7b7          	lui	a5,0xe000e
    10c0:	6709                	lui	a4,0x2
    10c2:	10e7a223          	sw	a4,260(a5) # e000e104 <_eusrstack+0xc0009104>
	if (ctx->zero_packet_pending && ctx->rxing == 0 && ctx->usb_timeout >= UART_ZERO_TIMEOUT) 
    10c6:	01844783          	lbu	a5,24(s0)
    10ca:	dc0789e3          	beqz	a5,e9c <main+0x152>
    10ce:	00c44783          	lbu	a5,12(s0)
    10d2:	dc0795e3          	bnez	a5,e9c <main+0x152>
    10d6:	4418                	lw	a4,8(s0)
    10d8:	03b00793          	li	a5,59
    10dc:	dce7f0e3          	bgeu	a5,a4,e9c <main+0x152>
	NVIC->IRER[((uint32_t)(IRQn) >> 5)] = (1 << ((uint32_t)(IRQn) & 0x1F));
    10e0:	e000e637          	lui	a2,0xe000e
    10e4:	6589                	lui	a1,0x2
    10e6:	18b62223          	sw	a1,388(a2) # e000e184 <_eusrstack+0xc0009184>
		ctx->rxing = 1;
    10ea:	4785                	li	a5,1
    10ec:	00f40623          	sb	a5,12(s0)
	if( tx ) UEP_CTRL_TX( endp ) = ( UEP_CTRL_TX( endp ) & ~USBFS_UEP_T_RES_MASK ) | USBFS_UEP_T_RES_ACK;
    10f0:	400237b7          	lui	a5,0x40023
    10f4:	42e7d703          	lhu	a4,1070(a5) # 4002342e <_eusrstack+0x2001e42e>
    10f8:	66c1                	lui	a3,0x10
    10fa:	16f1                	addi	a3,a3,-4 # fffc <main.c.6707df11+0xdbbc>
		ctx->usb_timeout = 0;
    10fc:	00042423          	sw	zero,8(s0)
    1100:	8f75                	and	a4,a4,a3
    1102:	42e79723          	sh	a4,1070(a5)
		ctx->zero_packet_pending = 0;
    1106:	00040c23          	sb	zero,24(s0)
	NVIC->IENR[((uint32_t)(IRQn) >> 5)] = (1 << ((uint32_t)(IRQn) & 0x1F));
    110a:	10b62223          	sw	a1,260(a2)
}
    110e:	b379                	j	e9c <main+0x152>
		if((millis_cnt - last_delay) > 100)
    1110:	c041a783          	lw	a5,-1020(gp) # 20000000 <millis_cnt>
    1114:	c081a803          	lw	a6,-1016(gp) # 20000004 <millis_cnt+0x4>
    1118:	412786b3          	sub	a3,a5,s2
    111c:	00d7b733          	sltu	a4,a5,a3
    1120:	40c807b3          	sub	a5,a6,a2
    1124:	00e79463          	bne	a5,a4,112c <main+0x3e2>
    1128:	d4d5fee3          	bgeu	a1,a3,e84 <main+0x13a>
			last_delay = millis_cnt;
    112c:	c041a703          	lw	a4,-1020(gp) # 20000000 <millis_cnt>
    1130:	c081a783          	lw	a5,-1016(gp) # 20000004 <millis_cnt+0x4>
    1134:	400117b7          	lui	a5,0x40011
    1138:	893a                	mv	s2,a4
			if (state_led == 0)
    113a:	80078793          	addi	a5,a5,-2048 # 40010800 <_eusrstack+0x2000b800>
    113e:	000c9763          	bnez	s9,114c <main+0x402>
				funDigitalWrite( PA9,     FUN_HIGH );
    1142:	20000713          	li	a4,512
    1146:	cb98                	sw	a4,16(a5)
				state_led = 1;
    1148:	4c85                	li	s9,1
    114a:	bb1d                	j	e80 <main+0x136>
				funDigitalWrite( PA9,     FUN_LOW );
    114c:	02000737          	lui	a4,0x2000
    1150:	cb98                	sw	a4,16(a5)
				state_led = 0;
    1152:	4c81                	li	s9,0
    1154:	b335                	j	e80 <main+0x136>
				funDigitalWrite( PA9,     FUN_LOW );
    1156:	020007b7          	lui	a5,0x2000
    115a:	00fa2823          	sw	a5,16(s4)
				state_led = 0;
    115e:	4c81                	li	s9,0
    1160:	bba5                	j	ed8 <main+0x18e>
			if (ctx->usb_timeout >= UART_USB_TIMEOUT) 
    1162:	4418                	lw	a4,8(s0)
    1164:	25700793          	li	a5,599
    1168:	f4e7ffe3          	bgeu	a5,a4,10c6 <main+0x37c>
				USBFSCTX.USBFS_Endp_Busy[3] = 0;
    116c:	200017b7          	lui	a5,0x20001
				ctx->rxing = 0;
    1170:	00040623          	sb	zero,12(s0)
				USBFSCTX.USBFS_Endp_Busy[3] = 0;
    1174:	d4078793          	addi	a5,a5,-704 # 20000d40 <USBFSCTX>
    1178:	120783a3          	sb	zero,295(a5)
    117c:	b7a9                	j	10c6 <main+0x37c>

0000117e <SysTick_Handler>:
	NVIC_EnableIRQ(SysTick_IRQn);
}

void SysTick_Handler(void) __attribute__((interrupt));
void SysTick_Handler(void)
{
    117e:	1101                	addi	sp,sp,-32
    1180:	c63a                	sw	a4,12(sp)
	SysTick->CMP += DELAY_MS_TIME;
    1182:	e000f737          	lui	a4,0xe000f
{
    1186:	c242                	sw	a6,4(sp)
	SysTick->CMP += DELAY_MS_TIME;
    1188:	01072803          	lw	a6,16(a4) # e000f010 <_eusrstack+0xc000a010>
{
    118c:	c43e                	sw	a5,8(sp)
	SysTick->CMP += DELAY_MS_TIME;
    118e:	67b1                	lui	a5,0xc
{
    1190:	c046                	sw	a7,0(sp)
	SysTick->CMP += DELAY_MS_TIME;
    1192:	b8078793          	addi	a5,a5,-1152 # bb80 <main.c.6707df11+0x9740>
    1196:	01472883          	lw	a7,20(a4)
    119a:	97c2                	add	a5,a5,a6
{
    119c:	ce2a                	sw	a0,28(sp)
    119e:	cc2e                	sw	a1,24(sp)
    11a0:	ca32                	sw	a2,20(sp)
    11a2:	c836                	sw	a3,16(sp)
	SysTick->CMP += DELAY_MS_TIME;
    11a4:	0107b533          	sltu	a0,a5,a6
    11a8:	cb1c                	sw	a5,16(a4)
    11aa:	011506b3          	add	a3,a0,a7
    11ae:	cb54                	sw	a3,20(a4)
	SysTick->SR = 0;

	cdc.rx_timeout++;
    11b0:	200017b7          	lui	a5,0x20001
	SysTick->SR = 0;
    11b4:	00072223          	sw	zero,4(a4)
	cdc.rx_timeout++;
    11b8:	d0c78793          	addi	a5,a5,-756 # 20000d0c <cdc>
    11bc:	4fd8                	lw	a4,28(a5)
	cdc.usb_timeout++;
	millis_cnt++;
    11be:	c041a803          	lw	a6,-1020(gp) # 20000000 <millis_cnt>
	cdc.rx_timeout++;
    11c2:	0705                	addi	a4,a4,1
    11c4:	cfd8                	sw	a4,28(a5)
	cdc.usb_timeout++;
    11c6:	4798                	lw	a4,8(a5)
	millis_cnt++;
    11c8:	c081a883          	lw	a7,-1016(gp) # 20000004 <millis_cnt+0x4>
    11cc:	00180513          	addi	a0,a6,1
    11d0:	01053633          	sltu	a2,a0,a6
	cdc.usb_timeout++;
    11d4:	0705                	addi	a4,a4,1
	millis_cnt++;
    11d6:	c0a1a223          	sw	a0,-1020(gp) # 20000000 <millis_cnt>
	cdc.usb_timeout++;
    11da:	c798                	sw	a4,8(a5)
	millis_cnt++;
    11dc:	011607b3          	add	a5,a2,a7
    11e0:	c0f1a423          	sw	a5,-1016(gp) # 20000004 <millis_cnt+0x4>
    11e4:	4572                	lw	a0,28(sp)
    11e6:	45e2                	lw	a1,24(sp)
    11e8:	4652                	lw	a2,20(sp)
    11ea:	46c2                	lw	a3,16(sp)
    11ec:	4732                	lw	a4,12(sp)
    11ee:	47a2                	lw	a5,8(sp)
    11f0:	4812                	lw	a6,4(sp)
    11f2:	4882                	lw	a7,0(sp)
    11f4:	6105                	addi	sp,sp,32
    11f6:	30200073          	mret
	...

000011fc <string3>:
    11fc:	00300308 00370030 00000000              ..0.0.7.....

00001208 <string2>:
    1208:	00550320 00420053 0073002d 00720065      .U.S.B.-.s.e.r.
    1218:	00610069 0020006c 0069006c 006b006e     i.a.l. .l.i.n.k.
    1228:	00000000                                ....

0000122c <string1>:
    122c:	00630310 00330068 00660032 006e0075     ..c.h.3.2.f.u.n.
    123c:	00000000                                ....

00001240 <language>:
    1240:	04090304 6f666542 66206572 6873616c     ....Before flash
    1250:	61657220 000d0a64 6c6c6548 7364206f      read...Hello ds
    1260:	64666473 66206673 73646664 66647366     sdfdsf fdfdsfsdf
    1270:	73646620 73646620 64736620 64736620      fds fds fsd fsd
    1280:	20736620 00206664 4253555b 5254205d      fs df .[USB] TR
    1290:	46534e41 202c5245 656b6f74 203d206e     ANSFER, token = 
    12a0:	78323025 7065202c 25203d20 62202c64     %02x, ep = %d, b
    12b0:	7165526d 74736575 65707954 25203d20     mRequestType = %
    12c0:	2c783230 65526220 73657571 203d2074     02x, bRequest = 
    12d0:	78323025 0000000a 4253555b 4553205d     %02x....[USB] SE
    12e0:	3a505554 32302520 30252078 25207832     TUP: %02x %02x %
    12f0:	20643230 78323025 34302520 00000a78     02d %02x %04x...
    1300:	4253555b 4552205d 00544553 4253555b     [USB] RESET.[USB
    1310:	5553205d 4e455053 00000044 4253555b     ] SUSPEND...[USB
    1320:	6e69205d 73676674 203d2074 78343025     ] intfgst = %04x
    1330:	0000000a 00000956 000008ba 00000770     ....V.......p...
    1340:	000008fe 00000770 0000085a 00000836     ....p...Z...6...
    1350:	00000770 00000894 000008ac 0000094a     p...........J...
    1360:	00000860                                `...

00001364 <config_descriptor>:
    1364:	00430209 80000102 00040932 02020100     ..C.....2.......
    1374:	24050001 05011000 01000124 02022404     ...$....$....$..
    1384:	00062405 81050701 01004003 00010409     .$.......@......
    1394:	00000a02 02050700 00004002 02830507     .........@......
    13a4:	00000040                                @...

000013a8 <device_descriptor>:
    13a8:	01100112 40000002 d0351209 02010007     .......@..5.....
    13b8:	00000103                                ....

000013bc <descriptor_list>:
    13bc:	00000100 000013a8 00000012 00000200     ................
    13cc:	00001364 00000043 00000300 00001240     d...C.......@...
    13dc:	00000004 04090301 0000122c 00000010     ........,.......
    13ec:	04090302 00001208 00000020 04090303     ........ .......
    13fc:	000011fc 00000008                       ........
