
main.elf:     file format elf32-littleriscv


Disassembly of section .init:

00000000 <InterruptVector>:
	void InterruptVector()         __attribute__((naked)) __attribute((section(".init"))) __attribute((weak,alias("InterruptVectorDefault"))) __attribute((naked));
	void InterruptVectorDefault()  __attribute__((naked)) __attribute((section(".init"))) __attribute((naked));
	void InterruptVectorDefault( void )
	{
		#if !defined(FUNCONF_TINYVECTOR) || !FUNCONF_TINYVECTOR
			asm volatile( DEFAULT_INTERRUPT_VECTOR_CONTENTS );
   0:	4640006f          	j	464 <handle_reset>
   4:	00000000          	.word	0x00000000
   8:	0000052a          	.word	0x0000052a
   c:	000004de          	.word	0x000004de
  10:	00000000          	.word	0x00000000
  14:	000004de          	.word	0x000004de
	...
  20:	000004de          	.word	0x000004de
  24:	000004de          	.word	0x000004de
	...
  30:	00001292          	.word	0x00001292
  34:	00000000          	.word	0x00000000
  38:	000004de          	.word	0x000004de
  3c:	00000000          	.word	0x00000000
  40:	000004de          	.word	0x000004de
  44:	000004de          	.word	0x000004de
  48:	000004de          	.word	0x000004de
  4c:	000004de          	.word	0x000004de
  50:	000004de          	.word	0x000004de
  54:	000004de          	.word	0x000004de
  58:	000004de          	.word	0x000004de
  5c:	000004de          	.word	0x000004de
  60:	000004de          	.word	0x000004de
  64:	000004de          	.word	0x000004de
  68:	000004de          	.word	0x000004de
  6c:	000004de          	.word	0x000004de
  70:	000004de          	.word	0x000004de
  74:	000004de          	.word	0x000004de
  78:	000004de          	.word	0x000004de
  7c:	000004de          	.word	0x000004de
  80:	000004de          	.word	0x000004de
  84:	000004de          	.word	0x000004de
  88:	000004de          	.word	0x000004de
  8c:	000004de          	.word	0x000004de
  90:	000004de          	.word	0x000004de
  94:	000004de          	.word	0x000004de
  98:	000004de          	.word	0x000004de
  9c:	000004de          	.word	0x000004de
  a0:	000004de          	.word	0x000004de
  a4:	000004de          	.word	0x000004de
  a8:	000004de          	.word	0x000004de
  ac:	000004de          	.word	0x000004de
  b0:	000004de          	.word	0x000004de
  b4:	00000538          	.word	0x00000538
  b8:	000004de          	.word	0x000004de
  bc:	000004de          	.word	0x000004de
  c0:	000004de          	.word	0x000004de
  c4:	000004de          	.word	0x000004de
  c8:	000004de          	.word	0x000004de
  cc:	000004de          	.word	0x000004de
  d0:	000004de          	.word	0x000004de
  d4:	000004de          	.word	0x000004de
  d8:	000004de          	.word	0x000004de
  dc:	0000                	.insn	2, 0x
	...

Disassembly of section .text:

000000e0 <mini_pad>:
	if(pad_to == 0) pad_to = len;
      e0:	c699                	beqz	a3,ee <mini_pad+0xe>
	int overflow = 0;
      e2:	4801                	li	a6,0
	if(len > pad_to) {
      e4:	00b6d763          	bge	a3,a1,f2 <mini_pad+0x12>
		len = pad_to;
      e8:	85b6                	mv	a1,a3
		overflow = 1;
      ea:	4805                	li	a6,1
      ec:	a019                	j	f2 <mini_pad+0x12>
	int overflow = 0;
      ee:	4801                	li	a6,0
	if(pad_to == 0) pad_to = len;
      f0:	86ae                	mv	a3,a1
	for(i = pad_to - len; i > 0; i --) {
      f2:	8e8d                	sub	a3,a3,a1
	char * pbuffer = buffer;
      f4:	87ba                	mv	a5,a4
      f6:	00e68333          	add	t1,a3,a4
	for(i = pad_to - len; i > 0; i --) {
      fa:	40f308b3          	sub	a7,t1,a5
      fe:	05104a63          	bgtz	a7,152 <mini_pad+0x72>
     102:	fff6c793          	not	a5,a3
     106:	87fd                	srai	a5,a5,0x1f
     108:	8efd                	and	a3,a3,a5
     10a:	96ba                	add	a3,a3,a4
     10c:	4781                	li	a5,0
	for(i = len; i > 0; i --) {
     10e:	40f58633          	sub	a2,a1,a5
     112:	00f688b3          	add	a7,a3,a5
     116:	04c04263          	bgtz	a2,15a <mini_pad+0x7a>
     11a:	fff5c793          	not	a5,a1
     11e:	87fd                	srai	a5,a5,0x1f
     120:	8dfd                	and	a1,a1,a5
     122:	95b6                	add	a1,a1,a3
	len = pbuffer - buffer;
     124:	40e58533          	sub	a0,a1,a4
	if(overflow) {
     128:	02080463          	beqz	a6,150 <mini_pad+0x70>
		for (i = 0; i < 3 && pbuffer > buffer; i ++) {
     12c:	02b77263          	bgeu	a4,a1,150 <mini_pad+0x70>
			*(pbuffer-- - 1) = '*';
     130:	02a00793          	li	a5,42
     134:	fef58fa3          	sb	a5,-1(a1)
     138:	fff58693          	addi	a3,a1,-1
		for (i = 0; i < 3 && pbuffer > buffer; i ++) {
     13c:	00d77a63          	bgeu	a4,a3,150 <mini_pad+0x70>
			*(pbuffer-- - 1) = '*';
     140:	fef58f23          	sb	a5,-2(a1)
     144:	ffe58693          	addi	a3,a1,-2
		for (i = 0; i < 3 && pbuffer > buffer; i ++) {
     148:	00d77463          	bgeu	a4,a3,150 <mini_pad+0x70>
			*(pbuffer-- - 1) = '*';
     14c:	fef58ea3          	sb	a5,-3(a1)
}
     150:	8082                	ret
		*(pbuffer++) = pad_char;
     152:	0785                	addi	a5,a5,1
     154:	fec78fa3          	sb	a2,-1(a5)
	for(i = pad_to - len; i > 0; i --) {
     158:	b74d                	j	fa <mini_pad+0x1a>
		*(pbuffer++) = *(ptr++);
     15a:	00f50633          	add	a2,a0,a5
     15e:	00064603          	lbu	a2,0(a2)
     162:	0785                	addi	a5,a5,1
     164:	00c88023          	sb	a2,0(a7)
	for(i = len; i > 0; i --) {
     168:	b75d                	j	10e <mini_pad+0x2e>

0000016a <_puts>:
{
     16a:	86aa                	mv	a3,a0
     16c:	852e                	mv	a0,a1
	if(!buf) return len;
     16e:	ce01                	beqz	a2,186 <_puts+0x1c>
	char * p0 = b->buffer;
     170:	00062883          	lw	a7,0(a2)
	for (i = 0; i < len; i++) {
     174:	4701                	li	a4,0
		if(b->pbuffer == b->buffer + b->buffer_len - 1) {
     176:	425c                	lw	a5,4(a2)
	for (i = 0; i < len; i++) {
     178:	00a74863          	blt	a4,a0,188 <_puts+0x1e>
	*(b->pbuffer) = 0;
     17c:	00078023          	sb	zero,0(a5)
	return b->pbuffer - p0;
     180:	4248                	lw	a0,4(a2)
     182:	41150533          	sub	a0,a0,a7
}
     186:	8082                	ret
		if(b->pbuffer == b->buffer + b->buffer_len - 1) {
     188:	00862803          	lw	a6,8(a2)
     18c:	420c                	lw	a1,0(a2)
     18e:	187d                	addi	a6,a6,-1
     190:	95c2                	add	a1,a1,a6
     192:	feb785e3          	beq	a5,a1,17c <_puts+0x12>
		*(b->pbuffer ++) = s[i];
     196:	00178593          	addi	a1,a5,1
     19a:	c24c                	sw	a1,4(a2)
     19c:	00e685b3          	add	a1,a3,a4
     1a0:	0005c583          	lbu	a1,0(a1)
	for (i = 0; i < len; i++) {
     1a4:	0705                	addi	a4,a4,1
		*(b->pbuffer ++) = s[i];
     1a6:	00b78023          	sb	a1,0(a5)
	for (i = 0; i < len; i++) {
     1aa:	b7f1                	j	176 <_puts+0xc>

000001ac <PrintHex>:
	while( (*DMDATA0) & 0x80 );
     1ac:	e00007b7          	lui	a5,0xe0000
     1b0:	38078793          	addi	a5,a5,896 # e0000380 <_eusrstack+0xbfffb380>
     1b4:	4398                	lw	a4,0(a5)
     1b6:	08077713          	andi	a4,a4,128
     1ba:	ff6d                	bnez	a4,1b4 <PrintHex+0x8>
	*DMDATA0 = 0x78302088; //" 0x"
     1bc:	78302737          	lui	a4,0x78302
     1c0:	08870713          	addi	a4,a4,136 # 78302088 <_eusrstack+0x582fd088>
		while( (*DMDATA0) & 0x80 );
     1c4:	e00006b7          	lui	a3,0xe0000
	*DMDATA0 = 0x78302088; //" 0x"
     1c8:	c398                	sw	a4,0(a5)
		while( (*DMDATA0) & 0x80 );
     1ca:	38068693          	addi	a3,a3,896 # e0000380 <_eusrstack+0xbfffb380>
	for( shift = 28; shift >= 0; shift -= 4 )
     1ce:	4771                	li	a4,28
		s += ( s < 10 ) ? '0' : ('a' - 10);
     1d0:	4825                	li	a6,9
	for( shift = 28; shift >= 0; shift -= 4 )
     1d2:	55f1                	li	a1,-4
		while( (*DMDATA0) & 0x80 );
     1d4:	429c                	lw	a5,0(a3)
     1d6:	0807f793          	andi	a5,a5,128
     1da:	ffed                	bnez	a5,1d4 <PrintHex+0x28>
		int s = (n>>shift) & 0xf;
     1dc:	00e55633          	srl	a2,a0,a4
     1e0:	8a3d                	andi	a2,a2,15
		s += ( s < 10 ) ? '0' : ('a' - 10);
     1e2:	00c837b3          	sltu	a5,a6,a2
     1e6:	40f007b3          	neg	a5,a5
     1ea:	0277f793          	andi	a5,a5,39
     1ee:	03078793          	addi	a5,a5,48
     1f2:	97b2                	add	a5,a5,a2
		*DMDATA0 = 0x85 | (s<<8); //" 0x"
     1f4:	07a2                	slli	a5,a5,0x8
     1f6:	0857e793          	ori	a5,a5,133
     1fa:	c29c                	sw	a5,0(a3)
	for( shift = 28; shift >= 0; shift -= 4 )
     1fc:	1771                	addi	a4,a4,-4
     1fe:	fcb71be3          	bne	a4,a1,1d4 <PrintHex+0x28>
}
     202:	8082                	ret

00000204 <mini_itoa.part.0>:
	int	negative = 0;
     204:	4881                	li	a7,0
	if (value < 0 && !unsig) {
     206:	00055663          	bgez	a0,212 <mini_itoa.part.0+0xe>
     20a:	e681                	bnez	a3,212 <mini_itoa.part.0+0xe>
		value = -value;
     20c:	40a00533          	neg	a0,a0
		negative = 1;
     210:	4885                	li	a7,1
     212:	8a05                	andi	a2,a2,1
     214:	06100793          	li	a5,97
     218:	c219                	beqz	a2,21e <mini_itoa.part.0+0x1a>
     21a:	04100793          	li	a5,65
	int	negative = 0;
     21e:	883a                	mv	a6,a4
		*(pbuffer++) = (digit < 10 ? '0' + digit : (uppercase ? 'A' : 'a') + digit - 10);
     220:	4e25                	li	t3,9
     222:	ff678613          	addi	a2,a5,-10
		int digit = value % radix;
     226:	02b577b3          	remu	a5,a0,a1
     22a:	832a                	mv	t1,a0
		*(pbuffer++) = (digit < 10 ? '0' + digit : (uppercase ? 'A' : 'a') + digit - 10);
     22c:	0ff7f693          	zext.b	a3,a5
     230:	04fe6463          	bltu	t3,a5,278 <mini_itoa.part.0+0x74>
     234:	03068693          	addi	a3,a3,48
     238:	0ff6f693          	zext.b	a3,a3
     23c:	00d80023          	sb	a3,0(a6)
     240:	00180793          	addi	a5,a6,1
		value /= radix;
     244:	02b55533          	divu	a0,a0,a1
	} while (value > 0);
     248:	02b37663          	bgeu	t1,a1,274 <mini_itoa.part.0+0x70>
	if (negative)
     24c:	00088863          	beqz	a7,25c <mini_itoa.part.0+0x58>
		*(pbuffer++) = '-';
     250:	02d00693          	li	a3,45
     254:	00d78023          	sb	a3,0(a5)
     258:	00280793          	addi	a5,a6,2
	len = (pbuffer - buffer);
     25c:	40e78533          	sub	a0,a5,a4
	for (i = 0; i < len / 2; i++) {
     260:	4609                	li	a2,2
	*(pbuffer) = '\0';
     262:	00078023          	sb	zero,0(a5)
	for (i = 0; i < len / 2; i++) {
     266:	4681                	li	a3,0
     268:	02c54633          	div	a2,a0,a2
     26c:	17fd                	addi	a5,a5,-1
     26e:	00c6c763          	blt	a3,a2,27c <mini_itoa.part.0+0x78>
}
     272:	8082                	ret
		*(pbuffer++) = (digit < 10 ? '0' + digit : (uppercase ? 'A' : 'a') + digit - 10);
     274:	883e                	mv	a6,a5
     276:	bf45                	j	226 <mini_itoa.part.0+0x22>
     278:	96b2                	add	a3,a3,a2
     27a:	bf7d                	j	238 <mini_itoa.part.0+0x34>
		char j = buffer[i];
     27c:	00d705b3          	add	a1,a4,a3
		buffer[i] = buffer[len-i-1];
     280:	0007c883          	lbu	a7,0(a5)
		char j = buffer[i];
     284:	0005c803          	lbu	a6,0(a1)
	for (i = 0; i < len / 2; i++) {
     288:	0685                	addi	a3,a3,1
		buffer[i] = buffer[len-i-1];
     28a:	01158023          	sb	a7,0(a1)
		buffer[len-i-1] = j;
     28e:	01078023          	sb	a6,0(a5)
	for (i = 0; i < len / 2; i++) {
     292:	bfe9                	j	26c <mini_itoa.part.0+0x68>

00000294 <USBFS_InternalFinishSetup>:

void USBFS_InternalFinishSetup()
{

#if FUSB_EP1_MODE
	USBFSCTX.endpoint_mode[1] = FUSB_EP1_MODE;
     294:	200017b7          	lui	a5,0x20001
     298:	c4478613          	addi	a2,a5,-956 # 20000c44 <USBFSCTX>
     29c:	10060693          	addi	a3,a2,256
     2a0:	4585                	li	a1,1
     2a2:	cacc                	sw	a1,20(a3)
#if FUSB_EP1_MODE > 0 
	USBFS->UEP4_1_MOD = USBFS_UEP1_TX_EN;
     2a4:	40023737          	lui	a4,0x40023
     2a8:	04000513          	li	a0,64
     2ac:	40a70623          	sb	a0,1036(a4) # 4002340c <_eusrstack+0x2001e40c>
	USBFS->UEP4_1_MOD |= USBFS_UEP4_RX_EN;
#endif
#endif

#if FUSB_EP2_MODE
	USBFSCTX.endpoint_mode[2] = FUSB_EP2_MODE;
     2b0:	557d                	li	a0,-1
     2b2:	ce88                	sw	a0,24(a3)
#if FUSB_EP2_MODE > 0 
	USBFS->UEP2_3_MOD = USBFS_UEP2_TX_EN;
#else
	USBFS->UEP2_3_MOD = USBFS_UEP2_RX_EN;
     2b4:	4521                	li	a0,8
     2b6:	40a706a3          	sb	a0,1037(a4)
#endif
#endif
#if FUSB_EP3_MODE
	USBFSCTX.endpoint_mode[3] = FUSB_EP3_MODE;
     2ba:	cecc                	sw	a1,28(a3)
#if FUSB_EP3_MODE > 0 
	USBFS->UEP2_3_MOD |= USBFS_UEP3_TX_EN;
     2bc:	40d74683          	lbu	a3,1037(a4)
     2c0:	c4478793          	addi	a5,a5,-956
     2c4:	0406e693          	ori	a3,a3,64
     2c8:	40d706a3          	sb	a3,1037(a4)
#error You must have at least EP0!
#endif

	for( int i = 0; i < FUSB_CONFIG_EPS; i++ )
	{
		UEP_DMA(i) = (uintptr_t)USBFSCTX.ENDPOINTS[i];
     2cc:	20001737          	lui	a4,0x20001
     2d0:	400236b7          	lui	a3,0x40023
     2d4:	c5470713          	addi	a4,a4,-940 # 20000c54 <USBFSCTX+0x10>
     2d8:	40e6a823          	sw	a4,1040(a3) # 40023410 <_eusrstack+0x2001e410>
     2dc:	20001737          	lui	a4,0x20001
     2e0:	c9470713          	addi	a4,a4,-876 # 20000c94 <USBFSCTX+0x50>
     2e4:	40e6aa23          	sw	a4,1044(a3)
     2e8:	20001737          	lui	a4,0x20001
     2ec:	cd470713          	addi	a4,a4,-812 # 20000cd4 <USBFSCTX+0x90>
     2f0:	40e6ac23          	sw	a4,1048(a3)
     2f4:	20001737          	lui	a4,0x20001
     2f8:	d1470713          	addi	a4,a4,-748 # 20000d14 <USBFSCTX+0xd0>
     2fc:	40e6ae23          	sw	a4,1052(a3)
	}
	
#if defined (CH5xx) || defined (CH32X03x) || defined (CH32V10x)
	UEP_CTRL_TX(0) = USBFS_UEP_T_RES_NAK | USBFS_UEP_R_RES_ACK | CHECK_USBFS_UEP_T_AUTO_TOG;
     300:	8736                	mv	a4,a3
     302:	46c9                	li	a3,18
     304:	42d71123          	sh	a3,1058(a4)

	for( int i = 1; i < FUSB_CONFIG_EPS; i++ )
	{
		if( USBFSCTX.endpoint_mode[i] > 0 )
		{
			UEP_CTRL_TX(i) = USBFS_UEP_T_RES_NAK;
     308:	4689                	li	a3,2
     30a:	42d71323          	sh	a3,1062(a4)
			UEP_CTRL_TX(i) = USBFS_UEP_R_RES_ACK;
#else
			UEP_CTRL_RX(i) = USBFS_UEP_R_RES_ACK;
#endif
		}
		USBFSCTX.USBFS_Endp_Busy[i] = 0;
     30e:	120602a3          	sb	zero,293(a2)
			UEP_CTRL_TX(i) = USBFS_UEP_R_RES_ACK;
     312:	42071523          	sh	zero,1066(a4)
		if( USBFSCTX.endpoint_mode[i] > 0 )
     316:	11c7a703          	lw	a4,284(a5)
		USBFSCTX.USBFS_Endp_Busy[i] = 0;
     31a:	12078323          	sb	zero,294(a5)
		if( USBFSCTX.endpoint_mode[i] > 0 )
     31e:	00e05963          	blez	a4,330 <USBFS_InternalFinishSetup+0x9c>
			UEP_CTRL_TX(i) = USBFS_UEP_T_RES_NAK;
     322:	40023737          	lui	a4,0x40023
     326:	42d71723          	sh	a3,1070(a4) # 4002342e <_eusrstack+0x2001e42e>
		USBFSCTX.USBFS_Endp_Busy[i] = 0;
     32a:	120783a3          	sb	zero,295(a5)
	}
}
     32e:	8082                	ret
		else if( USBFSCTX.endpoint_mode[i] < 0 )
     330:	df6d                	beqz	a4,32a <USBFS_InternalFinishSetup+0x96>
			UEP_CTRL_TX(i) = USBFS_UEP_R_RES_ACK;
     332:	40023737          	lui	a4,0x40023
     336:	42071723          	sh	zero,1070(a4) # 4002342e <_eusrstack+0x2001e42e>
     33a:	bfc5                	j	32a <USBFS_InternalFinishSetup+0x96>

0000033c <DelaySysTick.constprop.0>:
{
#if defined(CH32V003) || defined(CH32V00x)
	uint32_t targend = SysTick->CNT + n;
	while( ((int32_t)( SysTick->CNT - targend )) < 0 );
#elif defined(CH32V20x) || defined(CH32V30x) || defined(CH32X03x) || defined(CH32L103) || defined(CH582_CH583) || defined(CH591_CH592)
	uint64_t targend = SysTick->CNT + n;
     33c:	e000f837          	lui	a6,0xe000f
     340:	00882703          	lw	a4,8(a6) # e000f008 <_eusrstack+0xc000a008>
     344:	00c82783          	lw	a5,12(a6)
     348:	1e070613          	addi	a2,a4,480
     34c:	00e636b3          	sltu	a3,a2,a4
     350:	96be                	add	a3,a3,a5
	while( ((int64_t)( SysTick->CNT - targend )) < 0 );
     352:	00882503          	lw	a0,8(a6)
     356:	00c82583          	lw	a1,12(a6)
     35a:	40c50733          	sub	a4,a0,a2
     35e:	00e53733          	sltu	a4,a0,a4
     362:	40d587b3          	sub	a5,a1,a3
     366:	8f99                	sub	a5,a5,a4
     368:	fe07c5e3          	bltz	a5,352 <DelaySysTick.constprop.0+0x16>
	uint64_t targend = SysTick->CNT - n;
	while( ((int64_t)( SysTick->CNT - targend )) > 0 );
#else
	#error DelaySysTick not defined.
#endif
}
     36c:	8082                	ret

0000036e <internal_handle_input.constprop.0>:
	uint32_t dmd0 = *dmdata0;
     36e:	e00007b7          	lui	a5,0xe0000
     372:	3807a783          	lw	a5,896(a5) # e0000380 <_eusrstack+0xbfffb380>
}
     376:	8082                	ret

00000378 <_write.constprop.0>:
WEAK int _write(int fd, const char *buf, int size)
     378:	7139                	addi	sp,sp,-64
     37a:	dc22                	sw	s0,56(sp)
	if( ( *DMDATA0 & 0xc0 ) == 0xc0 ) return 0;
     37c:	e0000437          	lui	s0,0xe0000
     380:	38040413          	addi	s0,s0,896 # e0000380 <_eusrstack+0xbfffb380>
     384:	401c                	lw	a5,0(s0)
WEAK int _write(int fd, const char *buf, int size)
     386:	de06                	sw	ra,60(sp)
     388:	da26                	sw	s1,52(sp)
     38a:	d84a                	sw	s2,48(sp)
     38c:	d64e                	sw	s3,44(sp)
     38e:	d452                	sw	s4,40(sp)
     390:	d256                	sw	s5,36(sp)
     392:	d05a                	sw	s6,32(sp)
     394:	ce5e                	sw	s7,28(sp)
	if( ( *DMDATA0 & 0xc0 ) == 0xc0 ) return 0;
     396:	0c07f793          	andi	a5,a5,192
     39a:	0c000713          	li	a4,192
     39e:	00e78b63          	beq	a5,a4,3b4 <_write.constprop.0+0x3c>
	char buffer[4] = { 0 };
     3a2:	c602                	sw	zero,12(sp)
     3a4:	84ae                	mv	s1,a1
	if( size == 0 )
     3a6:	e5d5                	bnez	a1,452 <_write.constprop.0+0xda>
		lastdmd = (*DMDATA0);
     3a8:	401c                	lw	a5,0(s0)
		if( lastdmd && !(lastdmd&0x80) ) internal_handle_input( (uint32_t*)DMDATA0 );
     3aa:	c789                	beqz	a5,3b4 <_write.constprop.0+0x3c>
     3ac:	0807f793          	andi	a5,a5,128
     3b0:	e391                	bnez	a5,3b4 <_write.constprop.0+0x3c>
     3b2:	3f75                	jal	36e <internal_handle_input.constprop.0>
	if( ( *DMDATA0 & 0xc0 ) == 0xc0 ) return 0;
     3b4:	4481                	li	s1,0
}
     3b6:	50f2                	lw	ra,60(sp)
     3b8:	5462                	lw	s0,56(sp)
     3ba:	5942                	lw	s2,48(sp)
     3bc:	59b2                	lw	s3,44(sp)
     3be:	5a22                	lw	s4,40(sp)
     3c0:	5a92                	lw	s5,36(sp)
     3c2:	5b02                	lw	s6,32(sp)
     3c4:	4bf2                	lw	s7,28(sp)
     3c6:	8526                	mv	a0,s1
     3c8:	54d2                	lw	s1,52(sp)
     3ca:	6121                	addi	sp,sp,64
     3cc:	8082                	ret
		int tosend = size - place;
     3ce:	412489b3          	sub	s3,s1,s2
		if( tosend > 7 ) tosend = 7;
     3d2:	013b5363          	bge	s6,s3,3d8 <_write.constprop.0+0x60>
     3d6:	499d                	li	s3,7
     3d8:	008007b7          	lui	a5,0x800
     3dc:	0785                	addi	a5,a5,1 # 800001 <main.c.7dc03427+0x7fd736>
		while( ( lastdmd = (*DMDATA0) ) & 0x80 )
     3de:	4018                	lw	a4,0(s0)
     3e0:	08077693          	andi	a3,a4,128
     3e4:	e6b1                	bnez	a3,430 <_write.constprop.0+0xb8>
		if( lastdmd ) internal_handle_input( (uint32_t*)DMDATA0 );
     3e6:	c311                	beqz	a4,3ea <_write.constprop.0+0x72>
     3e8:	3759                	jal	36e <internal_handle_input.constprop.0>
     3ea:	0078                	addi	a4,sp,12
		if( tosend > 7 ) tosend = 7;
     3ec:	478d                	li	a5,3
     3ee:	863a                	mv	a2,a4
		while( t < tosend )
     3f0:	0537c763          	blt	a5,s3,43e <_write.constprop.0+0xc6>
		*DMDATA1 = *(uint32_t*)&(buffer[0]);
     3f4:	47b2                	lw	a5,12(sp)
     3f6:	012a0733          	add	a4,s4,s2
     3fa:	00faa023          	sw	a5,0(s5)
		t = 0;
     3fe:	4781                	li	a5,0
			buffer[t+1] = buf[t+place];
     400:	00074583          	lbu	a1,0(a4)
     404:	0785                	addi	a5,a5,1
     406:	00f606b3          	add	a3,a2,a5
     40a:	00b68023          	sb	a1,0(a3)
		while( t < tosend && t < 3 )
     40e:	00f98563          	beq	s3,a5,418 <_write.constprop.0+0xa0>
     412:	0705                	addi	a4,a4,1
     414:	ff7796e3          	bne	a5,s7,400 <_write.constprop.0+0x88>
		buffer[0] = 0x80 | (tosend + 4);
     418:	00498793          	addi	a5,s3,4
     41c:	f807e793          	ori	a5,a5,-128
     420:	00f10623          	sb	a5,12(sp)
		*DMDATA0 = *(uint32_t*)&(buffer[0]);
     424:	47b2                	lw	a5,12(sp)
		place += tosend;
     426:	994e                	add	s2,s2,s3
		*DMDATA0 = *(uint32_t*)&(buffer[0]);
     428:	c01c                	sw	a5,0(s0)
	while( place < size )
     42a:	fa9942e3          	blt	s2,s1,3ce <_write.constprop.0+0x56>
     42e:	b761                	j	3b6 <_write.constprop.0+0x3e>
			if( timeout-- == 0 )
     430:	17fd                	addi	a5,a5,-1
     432:	f7d5                	bnez	a5,3de <_write.constprop.0+0x66>
				*DMDATA0 |= 0xc0;
     434:	401c                	lw	a5,0(s0)
     436:	0c07e793          	ori	a5,a5,192
     43a:	c01c                	sw	a5,0(s0)
				return 0;
     43c:	bfa5                	j	3b4 <_write.constprop.0+0x3c>
			buffer[t-3] = buf[t+place];
     43e:	00f906b3          	add	a3,s2,a5
     442:	96d2                	add	a3,a3,s4
     444:	0006c683          	lbu	a3,0(a3)
			t++;
     448:	0785                	addi	a5,a5,1
     44a:	0705                	addi	a4,a4,1
			buffer[t-3] = buf[t+place];
     44c:	fed70fa3          	sb	a3,-1(a4)
     450:	b745                	j	3f0 <_write.constprop.0+0x78>
		*DMDATA1 = *(uint32_t*)&(buffer[0]);
     452:	e0000ab7          	lui	s5,0xe0000
     456:	8a2a                	mv	s4,a0
     458:	4901                	li	s2,0
		if( tosend > 7 ) tosend = 7;
     45a:	4b1d                	li	s6,7
		*DMDATA1 = *(uint32_t*)&(buffer[0]);
     45c:	384a8a93          	addi	s5,s5,900 # e0000384 <_eusrstack+0xbfffb384>
		while( t < tosend && t < 3 )
     460:	4b8d                	li	s7,3
     462:	b7e1                	j	42a <_write.constprop.0+0xb2>

00000464 <handle_reset>:
	asm volatile( "\n\
     464:	20000197          	auipc	gp,0x20000
     468:	f9818193          	addi	gp,gp,-104 # 200003fc <__global_pointer$>
     46c:	20005117          	auipc	sp,0x20005
     470:	b9410113          	addi	sp,sp,-1132 # 20005000 <_eusrstack>
     474:	6509                	lui	a0,0x2
     476:	88050513          	addi	a0,a0,-1920 # 1880 <ch32fun.c.24f59ef6+0xd7>
     47a:	30051073          	csrw	mstatus,a0
     47e:	468d                	li	a3,3
     480:	00000517          	auipc	a0,0x0
     484:	b8050513          	addi	a0,a0,-1152 # 0 <InterruptVector>
     488:	8d55                	or	a0,a0,a3
     48a:	30551073          	csrw	mtvec,a0
asm volatile(
     48e:	c0418513          	addi	a0,gp,-1020 # 20000000 <millis_cnt>
     492:	20001597          	auipc	a1,0x20001
     496:	8de58593          	addi	a1,a1,-1826 # 20000d70 <_ebss>
     49a:	4601                	li	a2,0
     49c:	00b55663          	bge	a0,a1,4a8 <handle_reset+0x44>
     4a0:	c110                	sw	a2,0(a0)
     4a2:	0511                	addi	a0,a0,4
     4a4:	feb54ee3          	blt	a0,a1,4a0 <handle_reset+0x3c>
     4a8:	00001517          	auipc	a0,0x1
     4ac:	07450513          	addi	a0,a0,116 # 151c <_data_lma>
     4b0:	c0418593          	addi	a1,gp,-1020 # 20000000 <millis_cnt>
     4b4:	c0418613          	addi	a2,gp,-1020 # 20000000 <millis_cnt>
     4b8:	00c58863          	beq	a1,a2,4c8 <handle_reset+0x64>
     4bc:	4114                	lw	a3,0(a0)
     4be:	c194                	sw	a3,0(a1)
     4c0:	0511                	addi	a0,a0,4
     4c2:	0591                	addi	a1,a1,4
     4c4:	fec59ae3          	bne	a1,a2,4b8 <handle_reset+0x54>
	SysTick->CTLR = 5;
     4c8:	e000f7b7          	lui	a5,0xe000f
     4cc:	4715                	li	a4,5
     4ce:	c398                	sw	a4,0(a5)
asm volatile(
     4d0:	6785                	lui	a5,0x1
     4d2:	ec078793          	addi	a5,a5,-320 # ec0 <main>
     4d6:	34179073          	csrw	mepc,a5
     4da:	30200073          	mret

000004de <ADC1_2_IRQHandler>:

// Return the Machine Exception Program Register (MEPC)
static inline uint32_t __get_MEPC(void)
{
	uint32_t result;
	__ASM volatile( ADD_ARCH_ZICSR "csrr %0," "mepc" : "=r"(result));
     4de:	34102573          	csrr	a0,mepc
	PrintHex( __get_MEPC() ); // "addr2line -e debugprintfdemo.elf 0x000007e6" ---> debugprintfdemo.c:45
     4e2:	31e9                	jal	1ac <PrintHex>
	__ASM volatile( ADD_ARCH_ZICSR "csrr %0, mstatus": "=r"(result) );
     4e4:	30002573          	csrr	a0,mstatus
	PrintHex( __get_MSTATUS() );
     4e8:	31d1                	jal	1ac <PrintHex>

// Return the Machine Trap Value Register (MTVAL)
static inline uint32_t __get_MTVAL(void)
{
	uint32_t result;
	__ASM volatile( ADD_ARCH_ZICSR "csrr %0," "mtval" : "=r" (result) );
     4ea:	34302573          	csrr	a0,mtval
	PrintHex( __get_MTVAL() );
     4ee:	397d                	jal	1ac <PrintHex>
	__ASM volatile( ADD_ARCH_ZICSR "csrr %0," "mcause": "=r"(result));
     4f0:	34202573          	csrr	a0,mcause
	PrintHex( __get_MCAUSE() );
     4f4:	3965                	jal	1ac <PrintHex>
	while( (*DMDATA0) & 0x80 );
     4f6:	e00007b7          	lui	a5,0xe0000
     4fa:	38078793          	addi	a5,a5,896 # e0000380 <_eusrstack+0xbfffb380>
     4fe:	4398                	lw	a4,0(a5)
     500:	08077713          	andi	a4,a4,128
     504:	ff6d                	bnez	a4,4fe <ADC1_2_IRQHandler+0x20>
	*DMDATA0 = 0x0a85;
     506:	6705                	lui	a4,0x1
     508:	a8570713          	addi	a4,a4,-1403 # a85 <USBFS_IRQHandler+0x54d>
     50c:	c398                	sw	a4,0(a5)
	while( (*DMDATA0) & 0x80 );
     50e:	e00007b7          	lui	a5,0xe0000
     512:	38078793          	addi	a5,a5,896 # e0000380 <_eusrstack+0xbfffb380>
     516:	4398                	lw	a4,0(a5)
     518:	08077713          	andi	a4,a4,128
     51c:	ff6d                	bnez	a4,516 <ADC1_2_IRQHandler+0x38>
	*DMDATA0 = 0xaaaaaa83;
     51e:	aaaab737          	lui	a4,0xaaaab
     522:	a8370713          	addi	a4,a4,-1405 # aaaaaa83 <_eusrstack+0x8aaa5a83>
     526:	c398                	sw	a4,0(a5)
	asm volatile( "1: j 1b" );
     528:	a001                	j	528 <ADC1_2_IRQHandler+0x4a>

0000052a <NMI_Handler>:
	RCC->INTR |= RCC_CSSC;	// clear the clock security int flag
     52a:	40021737          	lui	a4,0x40021
     52e:	471c                	lw	a5,8(a4)
     530:	008006b7          	lui	a3,0x800
     534:	8fd5                	or	a5,a5,a3
     536:	c71c                	sw	a5,8(a4)

00000538 <USBFS_IRQHandler>:
{
     538:	7159                	addi	sp,sp,-112
     53a:	c0be                	sw	a5,64(sp)
	uint16_t intfgst = *(uint16_t*)(&USBFS->INT_FG);
     53c:	400237b7          	lui	a5,0x40023
{
     540:	d652                	sw	s4,44(sp)
	uint16_t intfgst = *(uint16_t*)(&USBFS->INT_FG);
     542:	4067da03          	lhu	s4,1030(a5) # 40023406 <_eusrstack+0x2001e406>
{
     546:	cc66                	sw	s9,24(sp)
     548:	d686                	sw	ra,108(sp)
     54a:	d496                	sw	t0,104(sp)
     54c:	d29a                	sw	t1,100(sp)
     54e:	d09e                	sw	t2,96(sp)
     550:	cea2                	sw	s0,92(sp)
     552:	cca6                	sw	s1,88(sp)
     554:	caaa                	sw	a0,84(sp)
     556:	c8ae                	sw	a1,80(sp)
     558:	c6b2                	sw	a2,76(sp)
     55a:	c4b6                	sw	a3,72(sp)
     55c:	c2ba                	sw	a4,68(sp)
     55e:	de42                	sw	a6,60(sp)
     560:	dc46                	sw	a7,56(sp)
     562:	da4a                	sw	s2,52(sp)
     564:	d84e                	sw	s3,48(sp)
     566:	d456                	sw	s5,40(sp)
     568:	d25a                	sw	s6,36(sp)
     56a:	d05e                	sw	s7,32(sp)
     56c:	ce62                	sw	s8,28(sp)
     56e:	ca6a                	sw	s10,20(sp)
     570:	c86e                	sw	s11,16(sp)
     572:	c672                	sw	t3,12(sp)
     574:	c476                	sw	t4,8(sp)
     576:	c27a                	sw	t5,4(sp)
     578:	c07e                	sw	t6,0(sp)
	if( intfgst & CRB_UIF_TRANSFER )
     57a:	002a7793          	andi	a5,s4,2
     57e:	5c078463          	beqz	a5,b46 <USBFS_IRQHandler+0x60e>
		if( usb_debug ) printf("[USB] TRANSFER, token = %02x, ep = %d, bmRequestType = %02x, bRequest = %02x\n", token, ep, pUSBFS_SetupReqPak->bmRequestType, pUSBFS_SetupReqPak->bRequest);
     582:	c0c1c783          	lbu	a5,-1012(gp) # 20000008 <usb_debug>
		int token = ( intfgst & CMASK_UIS_TOKEN) >> 12;
     586:	40ca5493          	srai	s1,s4,0xc
		int ep = ( intfgst & CMASK_UIS_ENDP ) >> 8;
     58a:	408a5c13          	srai	s8,s4,0x8
		int token = ( intfgst & CMASK_UIS_TOKEN) >> 12;
     58e:	888d                	andi	s1,s1,3
		int ep = ( intfgst & CMASK_UIS_ENDP ) >> 8;
     590:	00fc7413          	andi	s0,s8,15
		if( usb_debug ) printf("[USB] TRANSFER, token = %02x, ep = %d, bmRequestType = %02x, bRequest = %02x\n", token, ep, pUSBFS_SetupReqPak->bmRequestType, pUSBFS_SetupReqPak->bRequest);
     594:	c385                	beqz	a5,5b4 <USBFS_IRQHandler+0x7c>
     596:	200017b7          	lui	a5,0x20001
     59a:	c4478793          	addi	a5,a5,-956 # 20000c44 <USBFSCTX>
     59e:	0117c703          	lbu	a4,17(a5)
     5a2:	0107c683          	lbu	a3,16(a5)
     5a6:	6505                	lui	a0,0x1
     5a8:	8622                	mv	a2,s0
     5aa:	85a6                	mv	a1,s1
     5ac:	3a050513          	addi	a0,a0,928 # 13a0 <language+0x4c>
     5b0:	0e9000ef          	jal	e98 <printf>
		switch ( token )
     5b4:	4609                	li	a2,2
     5b6:	04c48f63          	beq	s1,a2,614 <USBFS_IRQHandler+0xdc>
     5ba:	400237b7          	lui	a5,0x40023
     5be:	470d                	li	a4,3
     5c0:	40078793          	addi	a5,a5,1024 # 40023400 <_eusrstack+0x2001e400>
     5c4:	2ae48063          	beq	s1,a4,864 <USBFS_IRQHandler+0x32c>
     5c8:	16048263          	beqz	s1,72c <USBFS_IRQHandler+0x1f4>
		USBFS->INT_FG = CRB_UIF_TRANSFER;
     5cc:	400237b7          	lui	a5,0x40023
     5d0:	4709                	li	a4,2
     5d2:	40e78323          	sb	a4,1030(a5) # 40023406 <_eusrstack+0x2001e406>
}
     5d6:	4476                	lw	s0,92(sp)
     5d8:	50b6                	lw	ra,108(sp)
     5da:	52a6                	lw	t0,104(sp)
     5dc:	5316                	lw	t1,100(sp)
     5de:	5386                	lw	t2,96(sp)
     5e0:	44e6                	lw	s1,88(sp)
     5e2:	4556                	lw	a0,84(sp)
     5e4:	45c6                	lw	a1,80(sp)
     5e6:	4636                	lw	a2,76(sp)
     5e8:	46a6                	lw	a3,72(sp)
     5ea:	4716                	lw	a4,68(sp)
     5ec:	4786                	lw	a5,64(sp)
     5ee:	5872                	lw	a6,60(sp)
     5f0:	58e2                	lw	a7,56(sp)
     5f2:	5952                	lw	s2,52(sp)
     5f4:	59c2                	lw	s3,48(sp)
     5f6:	5a32                	lw	s4,44(sp)
     5f8:	5aa2                	lw	s5,40(sp)
     5fa:	5b12                	lw	s6,36(sp)
     5fc:	5b82                	lw	s7,32(sp)
     5fe:	4c72                	lw	s8,28(sp)
     600:	4ce2                	lw	s9,24(sp)
     602:	4d52                	lw	s10,20(sp)
     604:	4dc2                	lw	s11,16(sp)
     606:	4e32                	lw	t3,12(sp)
     608:	4ea2                	lw	t4,8(sp)
     60a:	4f12                	lw	t5,4(sp)
     60c:	4f82                	lw	t6,0(sp)
     60e:	6165                	addi	sp,sp,112
     610:	30200073          	mret
			if( ep )
     614:	c839                	beqz	s0,66a <USBFS_IRQHandler+0x132>
				if( ep < FUSB_CONFIG_EPS )
     616:	00cc7793          	andi	a5,s8,12
     61a:	fbcd                	bnez	a5,5cc <USBFS_IRQHandler+0x94>

int HandleInRequest( struct _USBState * ctx, int endp, uint8_t * data, int len )
{
	int ret = 0;  // Just NAK
	// if (usb_debug) printf("HandleInRequest - EP%d\n", endp);
	switch (endp)
     61c:	478d                	li	a5,3
     61e:	00f41863          	bne	s0,a5,62e <USBFS_IRQHandler+0xf6>
	{
		case 1:
			// ret = -1; // Just ACK
			break;
		case 3:
			cdc.rxing = 0;
     622:	200017b7          	lui	a5,0x20001
     626:	c0c78793          	addi	a5,a5,-1012 # 20000c0c <cdc>
     62a:	00078823          	sb	zero,16(a5)
					UEP_CTRL_TX(ep) ^= USBFS_UEP_T_TOG;
     62e:	400237b7          	lui	a5,0x40023
     632:	42278793          	addi	a5,a5,1058 # 40023422 <_eusrstack+0x2001e422>
     636:	00241713          	slli	a4,s0,0x2
     63a:	973e                	add	a4,a4,a5
     63c:	00075783          	lhu	a5,0(a4) # 40021000 <_eusrstack+0x2001c000>
     640:	0407c793          	xori	a5,a5,64
     644:	00f71023          	sh	a5,0(a4)
						UEP_CTRL_TX(ep) = ( UEP_CTRL_TX(ep) & ~USBFS_UEP_T_RES_MASK ) | USBFS_UEP_T_RES_NAK;
     648:	00075783          	lhu	a5,0(a4)
     64c:	07c2                	slli	a5,a5,0x10
     64e:	83c1                	srli	a5,a5,0x10
     650:	9bf1                	andi	a5,a5,-4
     652:	0027e793          	ori	a5,a5,2
     656:	00f71023          	sh	a5,0(a4)
					ctx->USBFS_Endp_Busy[ ep ] = 0;
     65a:	200017b7          	lui	a5,0x20001
     65e:	c4478793          	addi	a5,a5,-956 # 20000c44 <USBFSCTX>
     662:	97a2                	add	a5,a5,s0
     664:	12078223          	sb	zero,292(a5)
     668:	b795                	j	5cc <USBFS_IRQHandler+0x94>
				if( ctx->USBFS_SetupReqLen == 0 )
     66a:	20001437          	lui	s0,0x20001
     66e:	c4440793          	addi	a5,s0,-956 # 20000c44 <USBFSCTX>
     672:	0027d783          	lhu	a5,2(a5)
     676:	c4440413          	addi	s0,s0,-956
     67a:	e799                	bnez	a5,688 <USBFS_IRQHandler+0x150>
					UEP_CTRL_TX(0) = USBFS_UEP_R_RES_ACK | USBFS_UEP_R_TOG;
     67c:	400237b7          	lui	a5,0x40023
     680:	08000713          	li	a4,128
     684:	42e79123          	sh	a4,1058(a5) # 40023422 <_eusrstack+0x2001e422>
				if( ctx->pCtrlPayloadPtr )
     688:	00c42983          	lw	s3,12(s0)
				ctx->USBFS_errata_dont_send_endpoint_in_window = 0;
     68c:	12040423          	sb	zero,296(s0)
				if( ctx->pCtrlPayloadPtr )
     690:	04098a63          	beqz	s3,6e4 <USBFS_IRQHandler+0x1ac>
					len = ctx->USBFS_SetupReqLen >= DEF_USBD_UEP0_SIZE ? DEF_USBD_UEP0_SIZE : ctx->USBFS_SetupReqLen;
     694:	00245483          	lhu	s1,2(s0)
     698:	04000793          	li	a5,64
     69c:	8926                	mv	s2,s1
     69e:	0097f363          	bgeu	a5,s1,6a4 <USBFS_IRQHandler+0x16c>
     6a2:	893e                	mv	s2,a5
     6a4:	0942                	slli	s2,s2,0x10
     6a6:	01095913          	srli	s2,s2,0x10
					ctx->USBFS_SetupReqLen -= len;
     6aa:	412484b3          	sub	s1,s1,s2
					copyBuffer( ctrl0buff, ctx->pCtrlPayloadPtr, len ); // FYI -> Would need to do this if using DMA
     6ae:	20001537          	lui	a0,0x20001
					ctx->USBFS_SetupReqLen -= len;
     6b2:	04c2                	slli	s1,s1,0x10
					copyBuffer( ctrl0buff, ctx->pCtrlPayloadPtr, len ); // FYI -> Would need to do this if using DMA
     6b4:	864a                	mv	a2,s2
     6b6:	85ce                	mv	a1,s3
     6b8:	c5450513          	addi	a0,a0,-940 # 20000c54 <USBFSCTX+0x10>
					ctx->USBFS_SetupReqLen -= len;
     6bc:	80c1                	srli	s1,s1,0x10
					copyBuffer( ctrl0buff, ctx->pCtrlPayloadPtr, len ); // FYI -> Would need to do this if using DMA
     6be:	2709                	jal	dc0 <memcpy>
					ctx->USBFS_SetupReqLen -= len;
     6c0:	00941123          	sh	s1,2(s0)
						ctx->pCtrlPayloadPtr = 0;
     6c4:	4781                	li	a5,0
					if( ctx->USBFS_SetupReqLen > 0 )
     6c6:	c099                	beqz	s1,6cc <USBFS_IRQHandler+0x194>
						ctx->pCtrlPayloadPtr += len;
     6c8:	012987b3          	add	a5,s3,s2
     6cc:	c45c                	sw	a5,12(s0)
					UEP_CTRL_LEN(0) = len;
     6ce:	400237b7          	lui	a5,0x40023
     6d2:	43279023          	sh	s2,1056(a5) # 40023420 <_eusrstack+0x2001e420>
						UEP_CTRL_TX(0) ^= USBFS_UEP_T_TOG;
     6d6:	4227d703          	lhu	a4,1058(a5)
     6da:	04074713          	xori	a4,a4,64
			UEP_CTRL_TX(0) = USBFS_UEP_T_TOG | USBFS_UEP_T_RES_STALL | USBFS_UEP_R_TOG | USBFS_UEP_R_RES_STALL;
     6de:	42e79123          	sh	a4,1058(a5)
     6e2:	b5ed                	j	5cc <USBFS_IRQHandler+0x94>
				else if ( ( ctx->USBFS_SetupReqType & USB_REQ_TYP_MASK ) != USB_REQ_TYP_STANDARD )
     6e4:	00144783          	lbu	a5,1(s0)
     6e8:	0607f793          	andi	a5,a5,96
     6ec:	cf99                	beqz	a5,70a <USBFS_IRQHandler+0x1d2>
					if( len && USBFSCTX.USBFS_SetupReqCode != HID_GET_REPORT )
     6ee:	00245783          	lhu	a5,2(s0)
     6f2:	ec078de3          	beqz	a5,5cc <USBFS_IRQHandler+0x94>
     6f6:	00044703          	lbu	a4,0(s0)
     6fa:	4785                	li	a5,1
     6fc:	ecf708e3          	beq	a4,a5,5cc <USBFS_IRQHandler+0x94>
						UEP_CTRL_LEN(0) = len;
     700:	400237b7          	lui	a5,0x40023
     704:	42079023          	sh	zero,1056(a5) # 40023420 <_eusrstack+0x2001e420>
     708:	b7f9                	j	6d6 <USBFS_IRQHandler+0x19e>
					switch( USBFSCTX.USBFS_SetupReqCode )
     70a:	00044703          	lbu	a4,0(s0)
     70e:	4795                	li	a5,5
     710:	eaf71ee3          	bne	a4,a5,5cc <USBFS_IRQHandler+0x94>
							USBFS->DEV_ADDR = ( USBFS->DEV_ADDR & USBFS_UDA_GP_BIT ) | ctx->USBFS_DevAddr;
     714:	400237b7          	lui	a5,0x40023
     718:	4037c683          	lbu	a3,1027(a5) # 40023403 <_eusrstack+0x2001e403>
     71c:	00944703          	lbu	a4,9(s0)
     720:	0806f693          	andi	a3,a3,128
     724:	8f55                	or	a4,a4,a3
     726:	40e781a3          	sb	a4,1027(a5)
							break;
     72a:	b54d                	j	5cc <USBFS_IRQHandler+0x94>
			len = USBFS->RX_LEN;
     72c:	0087d703          	lhu	a4,8(a5)
			switch( ep )
     730:	e831                	bnez	s0,784 <USBFS_IRQHandler+0x24c>
					if( intfgst & CRB_UIS_TOG_OK )
     732:	011a1793          	slli	a5,s4,0x11
     736:	e807dbe3          	bgez	a5,5cc <USBFS_IRQHandler+0x94>
						if ( ctx->USBFS_SetupReqCode != HID_SET_REPORT )
     73a:	200017b7          	lui	a5,0x20001
     73e:	c4478713          	addi	a4,a5,-956 # 20000c44 <USBFSCTX>
     742:	00074603          	lbu	a2,0(a4)
     746:	46a5                	li	a3,9
     748:	c4478793          	addi	a5,a5,-956
     74c:	02d60263          	beq	a2,a3,770 <USBFS_IRQHandler+0x238>
void HandleDataOut( struct _USBState * ctx, int endp, uint8_t * data, int len )
{
	// if (usb_debug) printf("HandleDataOut - EP%d\n", endp);
	if( endp == 0 )
	{
		ctx->USBFS_SetupReqLen = 0; // To ACK
     750:	00079123          	sh	zero,2(a5)
							if ( ( ctx->USBFS_SetupReqType & USB_REQ_TYP_IN ) == 0 )
     754:	00178703          	lb	a4,1(a5)
     758:	00074563          	bltz	a4,762 <USBFS_IRQHandler+0x22a>
								ctx->USBFS_errata_dont_send_endpoint_in_window = 1;
     75c:	4705                	li	a4,1
     75e:	12e78423          	sb	a4,296(a5)
							UEP_CTRL_LEN(0) = 0;
     762:	400237b7          	lui	a5,0x40023
     766:	42079023          	sh	zero,1056(a5) # 40023420 <_eusrstack+0x2001e420>
							UEP_CTRL_TX(0) = USBFS_UEP_T_TOG | CHECK_USBFS_UEP_T_AUTO_TOG | USBFS_UEP_T_RES_ACK;
     76a:	05000713          	li	a4,80
     76e:	bf85                	j	6de <USBFS_IRQHandler+0x1a6>
						if( ctx->USBFS_SetupReqLen == 0 )
     770:	00275703          	lhu	a4,2(a4)
     774:	d365                	beqz	a4,754 <USBFS_IRQHandler+0x21c>
							UEP_CTRL_TX(0) ^= USBFS_UEP_R_TOG;
     776:	400237b7          	lui	a5,0x40023
     77a:	4227d703          	lhu	a4,1058(a5) # 40023422 <_eusrstack+0x2001e422>
     77e:	08074713          	xori	a4,a4,128
     782:	bfb1                	j	6de <USBFS_IRQHandler+0x1a6>
					UEP_CTRL_TX(ep) ^= USBFS_UEP_R_TOG;
     784:	400236b7          	lui	a3,0x40023
     788:	42268693          	addi	a3,a3,1058 # 40023422 <_eusrstack+0x2001e422>
     78c:	00241713          	slli	a4,s0,0x2
     790:	9736                	add	a4,a4,a3
     792:	00075683          	lhu	a3,0(a4)
     796:	0806c693          	xori	a3,a3,128
     79a:	00d71023          	sh	a3,0(a4)
			// cdc.uart->stop_bits = CTRL0BUFF[4];
			// cdc.uart->parity = CTRL0BUFF[5];
			// cdc.uart->word_length = CTRL0BUFF[6];
		}
	}
	if( endp == 2 )
     79e:	e2c417e3          	bne	s0,a2,5cc <USBFS_IRQHandler+0x94>
	{
		if( cdc.tx_stop )
     7a2:	20001637          	lui	a2,0x20001
     7a6:	c0c60713          	addi	a4,a2,-1012 # 20000c0c <cdc>
     7aa:	03474683          	lbu	a3,52(a4)
     7ae:	c0c60613          	addi	a2,a2,-1012
     7b2:	c681                	beqz	a3,7ba <USBFS_IRQHandler+0x282>
		{
			cdc.tx_stop = 0;
     7b4:	02070a23          	sb	zero,52(a4)
			return;
     7b8:	bd11                	j	5cc <USBFS_IRQHandler+0x94>
		}
		// printf("uart_tx_buffer: 0=%c, 1=%c, 2=%c, 3=%c\n", uart_tx_buffer[uart.tx_pos], uart_tx_buffer[uart.tx_pos + 1], uart_tx_buffer[uart.tx_pos + 2], uart_tx_buffer[uart.tx_pos + 3]);
		int pad = 4 - USBFS->RX_LEN;
     7ba:	0087d703          	lhu	a4,8(a5)
		if( pad < 0 ) pad = 0;
		uint32_t write_pos = cdc.tx_pos + cdc.tx_remain + USBFS->RX_LEN;
     7be:	5658                	lw	a4,44(a2)
     7c0:	560c                	lw	a1,40(a2)
     7c2:	0087d783          	lhu	a5,8(a5)
     7c6:	97ae                	add	a5,a5,a1
     7c8:	97ba                	add	a5,a5,a4
		if( write_pos > cdc.tx_wrap_pos ) write_pos -= cdc.tx_wrap_pos;
     7ca:	5a18                	lw	a4,48(a2)
     7cc:	00f77363          	bgeu	a4,a5,7d2 <USBFS_IRQHandler+0x29a>
     7d0:	8f99                	sub	a5,a5,a4
		if( write_pos & 0x3 )
     7d2:	0037f713          	andi	a4,a5,3
     7d6:	c30d                	beqz	a4,7f8 <USBFS_IRQHandler+0x2c0>

static inline int USBFS_SendNAK( int endp, int tx )
{
	if( tx ) UEP_CTRL_TX( endp ) = ( UEP_CTRL_TX( endp ) & ~USBFS_UEP_T_RES_MASK ) | USBFS_UEP_T_RES_NAK;
#if defined (CH5xx) || defined (CH32X03x) || defined (CH32V10x)
	else UEP_CTRL_TX(endp) = ( UEP_CTRL_TX(endp) & ~USBFS_UEP_R_RES_MASK ) | USBFS_UEP_R_RES_NAK;
     7d8:	400236b7          	lui	a3,0x40023
     7dc:	42a6d703          	lhu	a4,1066(a3) # 4002342a <_eusrstack+0x2001e42a>
		{
			write_pos = (write_pos + 4) & ~0x3;
     7e0:	0791                	addi	a5,a5,4
     7e2:	9bf1                	andi	a5,a5,-4
     7e4:	0742                	slli	a4,a4,0x10
     7e6:	8341                	srli	a4,a4,0x10
     7e8:	9b4d                	andi	a4,a4,-13
     7ea:	00876713          	ori	a4,a4,8
     7ee:	42e69523          	sh	a4,1066(a3)
			USBFS_SendNAK( 2, 0 );
			// USBFS->UEP2_RX_CTRL &= ~USBFS_UEP_R_RES_MASK;
			// USBFS->UEP2_RX_CTRL |= USBFS_UEP_R_RES_NAK;
			cdc.tx_stop = 1;
     7f2:	4705                	li	a4,1
     7f4:	02e60a23          	sb	a4,52(a2)
		}
		// printf("[HandleDatOut] write_pos = %d, tx_pos = %d, tx_remain = %d, USBFS->RX_LEN = %d \n", write_pos, cdc.tx_pos, cdc.tx_remain, USBFS->RX_LEN);
		// if( write_pos >= uart.tx_wrap_pos) write_pos = uart.tx_remain - (uart.tx_wrap_pos - uart.tx_pos);
		// if( write_pos < uart.tx_pos && write_pos + 64 >= uart.tx_pos ) goto buffer_overflow;
		if( write_pos > ( UART_TX_BUF_SIZE - 64) )
     7f8:	3c000713          	li	a4,960
     7fc:	00f77d63          	bgeu	a4,a5,816 <USBFS_IRQHandler+0x2de>
		{
			// printf("WRAP -> write_pos = %d > 960, 961 = %c\n", write_pos, uart_tx_buffer[961]);
			cdc.tx_wrap_pos = cdc.tx_pos + cdc.tx_remain + USBFS->RX_LEN;
     800:	400237b7          	lui	a5,0x40023
     804:	40078793          	addi	a5,a5,1024 # 40023400 <_eusrstack+0x2001e400>
     808:	5658                	lw	a4,44(a2)
     80a:	0087d783          	lhu	a5,8(a5)
     80e:	97ae                	add	a5,a5,a1
     810:	97ba                	add	a5,a5,a4
     812:	da1c                	sw	a5,48(a2)
			write_pos = 0;
     814:	4781                	li	a5,0
		// if( write_pos + len > UART_TX_BUF_SIZE - 1 )
		// {
		//   uart.tx_wrap_pos = write_pos;
		//   write_pos = 0;
		// }
		USBFS->UEP2_DMA = (uint32_t)(uart_tx_buffer + write_pos);
     816:	20001737          	lui	a4,0x20001
     81a:	80c70713          	addi	a4,a4,-2036 # 2000080c <uart_tx_buffer>
     81e:	97ba                	add	a5,a5,a4
     820:	40023737          	lui	a4,0x40023
     824:	40070713          	addi	a4,a4,1024 # 40023400 <_eusrstack+0x2001e400>
     828:	cf1c                	sw	a5,24(a4)
		// printf("USBFS->UEP2_DMA = %08x\n", USBFS->UEP2_DMA);
		
		if( cdc.tx_remain >= ( UART_TX_BUF_SIZE ) )
     82a:	5658                	lw	a4,44(a2)
     82c:	3ff00793          	li	a5,1023
     830:	02e7f063          	bgeu	a5,a4,850 <USBFS_IRQHandler+0x318>
     834:	40023737          	lui	a4,0x40023
     838:	42a75783          	lhu	a5,1066(a4) # 4002342a <_eusrstack+0x2001e42a>
     83c:	07c2                	slli	a5,a5,0x10
     83e:	83c1                	srli	a5,a5,0x10
     840:	9bcd                	andi	a5,a5,-13
     842:	0087e793          	ori	a5,a5,8
     846:	42f71523          	sh	a5,1066(a4)
		{
			// if( usb_debug ) printf("Buffer overflow, %c\n", uart_tx_buffer[961]);
			USBFS_SendNAK( 2, 0 );
			// USBFS->UEP2_RX_CTRL &= ~USBFS_UEP_R_RES_MASK;
			// USBFS->UEP2_RX_CTRL |= USBFS_UEP_R_RES_NAK;
			cdc.tx_stop = 1;
     84a:	4785                	li	a5,1
     84c:	02f60a23          	sb	a5,52(a2)
		}
		cdc.tx_remain += USBFS->RX_LEN;
     850:	400237b7          	lui	a5,0x40023
     854:	40078793          	addi	a5,a5,1024 # 40023400 <_eusrstack+0x2001e400>
     858:	0087d783          	lhu	a5,8(a5)
     85c:	5658                	lw	a4,44(a2)
     85e:	97ba                	add	a5,a5,a4
     860:	d65c                	sw	a5,44(a2)
     862:	b3ad                	j	5cc <USBFS_IRQHandler+0x94>
			if (!(USBFS->INT_ST & 0x80)) goto replycomplete;
     864:	0077c783          	lbu	a5,7(a5)
     868:	07e2                	slli	a5,a5,0x18
     86a:	87e1                	srai	a5,a5,0x18
     86c:	d607d0e3          	bgez	a5,5cc <USBFS_IRQHandler+0x94>
			int USBFS_SetupReqType = USBFSCTX.USBFS_SetupReqType  = pUSBFS_SetupReqPak->bmRequestType;
     870:	20001db7          	lui	s11,0x20001
			UEP_CTRL_TX(0) = USBFS_UEP_T_RES_NAK | USBFS_UEP_T_TOG | USBFS_UEP_R_RES_NAK | USBFS_UEP_R_TOG | CHECK_USBFS_UEP_AUTO_TOG;
     874:	400237b7          	lui	a5,0x40023
     878:	0da00713          	li	a4,218
     87c:	42e79123          	sh	a4,1058(a5) # 40023422 <_eusrstack+0x2001e422>
			int USBFS_SetupReqType = USBFSCTX.USBFS_SetupReqType  = pUSBFS_SetupReqPak->bmRequestType;
     880:	c44d8613          	addi	a2,s11,-956 # 20000c44 <USBFSCTX>
			int USBFS_SetupReqCode = USBFSCTX.USBFS_SetupReqCode  = pUSBFS_SetupReqPak->bRequest;
     884:	01065783          	lhu	a5,16(a2)
     888:	01465b83          	lhu	s7,20(a2)
			int USBFS_SetupReqLen = USBFSCTX.USBFS_SetupReqLen    = pUSBFS_SetupReqPak->wLength;
     88c:	01665b03          	lhu	s6,22(a2)
			int USBFS_SetupReqCode = USBFSCTX.USBFS_SetupReqCode  = pUSBFS_SetupReqPak->bRequest;
     890:	0087d713          	srli	a4,a5,0x8
     894:	07a2                	slli	a5,a5,0x8
     896:	8fd9                	or	a5,a5,a4
     898:	01265703          	lhu	a4,18(a2)
     89c:	c4fd9223          	sh	a5,-956(s11)
     8a0:	010b9793          	slli	a5,s7,0x10
     8a4:	00e7ed33          	or	s10,a5,a4
			if( usb_debug ) printf( "[USB] SETUP: %02x %02x %02d %02x %04x\n", USBFS_SetupReqType, USBFS_SetupReqCode, USBFS_SetupReqLen, USBFS_SetupReqIndex, USBFS_IndexValue );
     8a8:	c0c1c783          	lbu	a5,-1012(gp) # 20000008 <usb_debug>
			int USBFS_SetupReqLen = USBFSCTX.USBFS_SetupReqLen    = pUSBFS_SetupReqPak->wLength;
     8ac:	01661123          	sh	s6,2(a2)
			int USBFS_IndexValue = USBFSCTX.USBFS_IndexValue = ( pUSBFS_SetupReqPak->wIndex << 16 ) | pUSBFS_SetupReqPak->wValue;
     8b0:	01a62223          	sw	s10,4(a2)
			int USBFS_SetupReqType = USBFSCTX.USBFS_SetupReqType  = pUSBFS_SetupReqPak->bmRequestType;
     8b4:	01064a83          	lbu	s5,16(a2)
			int USBFS_SetupReqCode = USBFSCTX.USBFS_SetupReqCode  = pUSBFS_SetupReqPak->bRequest;
     8b8:	01164903          	lbu	s2,17(a2)
			int USBFS_SetupReqLen = USBFSCTX.USBFS_SetupReqLen    = pUSBFS_SetupReqPak->wLength;
     8bc:	89da                	mv	s3,s6
			if( usb_debug ) printf( "[USB] SETUP: %02x %02x %02d %02x %04x\n", USBFS_SetupReqType, USBFS_SetupReqCode, USBFS_SetupReqLen, USBFS_SetupReqIndex, USBFS_IndexValue );
     8be:	c44d8493          	addi	s1,s11,-956
     8c2:	cb91                	beqz	a5,8d6 <USBFS_IRQHandler+0x39e>
     8c4:	6505                	lui	a0,0x1
     8c6:	87ea                	mv	a5,s10
     8c8:	875e                	mv	a4,s7
     8ca:	86da                	mv	a3,s6
     8cc:	864a                	mv	a2,s2
     8ce:	85d6                	mv	a1,s5
     8d0:	3f050513          	addi	a0,a0,1008 # 13f0 <language+0x9c>
     8d4:	23d1                	jal	e98 <printf>
			if( ( USBFS_SetupReqType & USB_REQ_TYP_MASK ) != USB_REQ_TYP_STANDARD )
     8d6:	060af793          	andi	a5,s5,96
     8da:	cfdd                	beqz	a5,998 <USBFS_IRQHandler+0x460>
				if( ( USBFS_SetupReqType & USB_REQ_TYP_MASK ) == USB_REQ_TYP_CLASS )
     8dc:	02000713          	li	a4,32
     8e0:	0ee79c63          	bne	a5,a4,9d8 <USBFS_IRQHandler+0x4a0>
}

int HandleSetupCustom( struct _USBState * ctx, int setup_code)
{
	int ret = -1;
	if( ctx->USBFS_SetupReqType & USB_REQ_TYP_CLASS )
     8e4:	0014c983          	lbu	s3,1(s1)
     8e8:	00e9f733          	and	a4,s3,a4
     8ec:	cf31                	beqz	a4,948 <USBFS_IRQHandler+0x410>
	{
		switch( setup_code )
     8ee:	02100713          	li	a4,33
     8f2:	04e90263          	beq	s2,a4,936 <USBFS_IRQHandler+0x3fe>
     8f6:	01276963          	bltu	a4,s2,908 <USBFS_IRQHandler+0x3d0>
     8fa:	00f90e63          	beq	s2,a5,916 <USBFS_IRQHandler+0x3de>
			UEP_CTRL_TX(0) = USBFS_UEP_T_TOG | USBFS_UEP_T_RES_STALL | USBFS_UEP_R_TOG | USBFS_UEP_R_RES_STALL;
     8fe:	400237b7          	lui	a5,0x40023
     902:	0cf00713          	li	a4,207
     906:	bbe1                	j	6de <USBFS_IRQHandler+0x1a6>
     908:	fde90913          	addi	s2,s2,-34
     90c:	0ff97913          	zext.b	s2,s2
     910:	4785                	li	a5,1
     912:	ff27e6e3          	bltu	a5,s2,8fe <USBFS_IRQHandler+0x3c6>
		{
			case CDC_SET_LINE_CODING:
			case CDC_SET_LINE_CTLSTE:
			case CDC_SEND_BREAK:
				ret = (ctx->USBFS_SetupReqLen)?ctx->USBFS_SetupReqLen:-1;
     916:	0024d403          	lhu	s0,2(s1)
     91a:	c815                	beqz	s0,94e <USBFS_IRQHandler+0x416>
									copyBuffer( ctrl0buff, ctx->pCtrlPayloadPtr, len );
     91c:	00c4a903          	lw	s2,12(s1)
     920:	20001537          	lui	a0,0x20001
     924:	8622                	mv	a2,s0
     926:	85ca                	mv	a1,s2
     928:	c5450513          	addi	a0,a0,-940 # 20000c54 <USBFSCTX+0x10>
									ctx->pCtrlPayloadPtr += len;
     92c:	9922                	add	s2,s2,s0
									copyBuffer( ctrl0buff, ctx->pCtrlPayloadPtr, len );
     92e:	2949                	jal	dc0 <memcpy>
									ctx->pCtrlPayloadPtr += len;
     930:	0124a623          	sw	s2,12(s1)
     934:	a005                	j	954 <USBFS_IRQHandler+0x41c>

				break;
			case CDC_GET_LINE_CODING:
				ctx->pCtrlPayloadPtr = cdc.cdc_cfg;
     936:	200017b7          	lui	a5,0x20001
				ret = ctx->USBFS_SetupReqLen;
     93a:	0024d403          	lhu	s0,2(s1)
				ctx->pCtrlPayloadPtr = cdc.cdc_cfg;
     93e:	c1078793          	addi	a5,a5,-1008 # 20000c10 <cdc+0x4>
     942:	c4dc                	sw	a5,12(s1)
							if( len )
     944:	fc61                	bnez	s0,91c <USBFS_IRQHandler+0x3e4>
     946:	bf65                	j	8fe <USBFS_IRQHandler+0x3c6>
			default:
				ret = 0;
				break;
		}
	}
	else if( ctx->USBFS_SetupReqType & USB_REQ_TYP_VENDOR )
     948:	0409f793          	andi	a5,s3,64
     94c:	dbcd                	beqz	a5,8fe <USBFS_IRQHandler+0x3c6>
									ctx->USBFS_SetupReqLen = 0;
     94e:	00049123          	sh	zero,2(s1)
									len = 0;
     952:	4401                	li	s0,0
								if( ctx->USBFS_SetupReqType & DEF_UEP_IN || ctx->USBFS_SetupReqLen == 0)
     954:	09e2                	slli	s3,s3,0x18
     956:	4189d993          	srai	s3,s3,0x18
     95a:	0009c563          	bltz	s3,964 <USBFS_IRQHandler+0x42c>
     95e:	0024d783          	lhu	a5,2(s1)
     962:	e795                	bnez	a5,98e <USBFS_IRQHandler+0x456>
									len = len >= DEF_USBD_UEP0_SIZE ? DEF_USBD_UEP0_SIZE : len;
     964:	04000793          	li	a5,64
     968:	0087d363          	bge	a5,s0,96e <USBFS_IRQHandler+0x436>
     96c:	843e                	mv	s0,a5
									UEP_CTRL_LEN(0) = len;
     96e:	0442                	slli	s0,s0,0x10
     970:	400237b7          	lui	a5,0x40023
     974:	8041                	srli	s0,s0,0x10
     976:	42879023          	sh	s0,1056(a5) # 40023420 <_eusrstack+0x2001e420>
									UEP_CTRL_TX(0) = USBFS_UEP_T_TOG|USBFS_UEP_T_RES_ACK;
     97a:	04000713          	li	a4,64
     97e:	42e79123          	sh	a4,1058(a5)
									ctx->USBFS_SetupReqLen -= len;
     982:	0024d783          	lhu	a5,2(s1)
     986:	8f81                	sub	a5,a5,s0
     988:	00f49123          	sh	a5,2(s1)
     98c:	b181                	j	5cc <USBFS_IRQHandler+0x94>
								else UEP_CTRL_TX(0)= USBFS_UEP_R_TOG|USBFS_UEP_R_RES_ACK;
     98e:	400237b7          	lui	a5,0x40023
     992:	08000713          	li	a4,128
     996:	b3a1                	j	6de <USBFS_IRQHandler+0x1a6>
				switch( USBFS_SetupReqCode )
     998:	47ad                	li	a5,11
     99a:	f727e2e3          	bltu	a5,s2,8fe <USBFS_IRQHandler+0x3c6>
     99e:	6685                	lui	a3,0x1
     9a0:	090a                	slli	s2,s2,0x2
     9a2:	44c68693          	addi	a3,a3,1100 # 144c <language+0xf8>
     9a6:	9936                	add	s2,s2,a3
     9a8:	00092783          	lw	a5,0(s2)
     9ac:	8782                	jr	a5
						const struct descriptor_list_struct * e = descriptor_list;
     9ae:	6705                	lui	a4,0x1
     9b0:	4d470713          	addi	a4,a4,1236 # 14d4 <descriptor_list>
						for( ; e != e_end; e++ )
     9b4:	6685                	lui	a3,0x1
							if( e->lIndexValue == USBFS_IndexValue )
     9b6:	431c                	lw	a5,0(a4)
     9b8:	05a79463          	bne	a5,s10,a00 <USBFS_IRQHandler+0x4c8>
								ctx->pCtrlPayloadPtr = (uint8_t*)e->addr;
     9bc:	435c                	lw	a5,4(a4)
						ctx->USBFS_SetupReqLen = len;
     9be:	c44d8d93          	addi	s11,s11,-956
								ctx->pCtrlPayloadPtr = (uint8_t*)e->addr;
     9c2:	c4dc                	sw	a5,12(s1)
								len = e->length;
     9c4:	00874783          	lbu	a5,8(a4)
						if( len > USBFS_SetupReqLen )
     9c8:	00fb5363          	bge	s6,a5,9ce <USBFS_IRQHandler+0x496>
     9cc:	87da                	mv	a5,s6
						ctx->USBFS_SetupReqLen = len;
     9ce:	00fd9123          	sh	a5,2(s11)
						ctx->USBFS_DevAddr = (uint8_t)( ctx->USBFS_IndexValue & 0xFF );
     9d2:	40dc                	lw	a5,4(s1)
     9d4:	00f484a3          	sb	a5,9(s1)
				if( USBFS_SetupReqType & DEF_UEP_IN )
     9d8:	018a9593          	slli	a1,s5,0x18
     9dc:	85e1                	srai	a1,a1,0x18
     9de:	1405d363          	bgez	a1,b24 <USBFS_IRQHandler+0x5ec>
					len = ( USBFS_SetupReqLen > DEF_USBD_UEP0_SIZE )? DEF_USBD_UEP0_SIZE : USBFS_SetupReqLen;
     9e2:	04000793          	li	a5,64
     9e6:	0137d363          	bge	a5,s3,9ec <USBFS_IRQHandler+0x4b4>
     9ea:	89be                	mv	s3,a5
					UEP_CTRL_LEN(0) = len;
     9ec:	09c2                	slli	s3,s3,0x10
     9ee:	400237b7          	lui	a5,0x40023
     9f2:	0109d993          	srli	s3,s3,0x10
     9f6:	43379023          	sh	s3,1056(a5) # 40023420 <_eusrstack+0x2001e420>
					UEP_CTRL_TX(0) = USBFS_UEP_T_RES_ACK;
     9fa:	42079123          	sh	zero,1058(a5)
     9fe:	b6f9                	j	5cc <USBFS_IRQHandler+0x94>
						for( ; e != e_end; e++ )
     a00:	0731                	addi	a4,a4,12
     a02:	51c68793          	addi	a5,a3,1308 # 151c <_data_lma>
     a06:	faf718e3          	bne	a4,a5,9b6 <USBFS_IRQHandler+0x47e>
     a0a:	bdd5                	j	8fe <USBFS_IRQHandler+0x3c6>
						ctrl0buff[0] = ctx->USBFS_DevConfig;
     a0c:	0084c783          	lbu	a5,8(s1)
						if( ctx->USBFS_SetupReqLen > 1 )
     a10:	0024d703          	lhu	a4,2(s1)
						ctrl0buff[0] = ctx->USBFS_DevConfig;
     a14:	00f48823          	sb	a5,16(s1)
						if( ctx->USBFS_SetupReqLen > 1 )
     a18:	4785                	li	a5,1
     a1a:	fae7ffe3          	bgeu	a5,a4,9d8 <USBFS_IRQHandler+0x4a0>
							ctx->USBFS_SetupReqLen = 1;
     a1e:	00f49123          	sh	a5,2(s1)
     a22:	bf5d                	j	9d8 <USBFS_IRQHandler+0x4a0>
						ctx->USBFS_DevConfig = (uint8_t)( ctx->USBFS_IndexValue & 0xFF );
     a24:	40dc                	lw	a5,4(s1)
     a26:	00f48423          	sb	a5,8(s1)
						ctx->USBFS_DevEnumStatus = 0x01;
     a2a:	4785                	li	a5,1
     a2c:	00f485a3          	sb	a5,11(s1)
						break;
     a30:	b765                	j	9d8 <USBFS_IRQHandler+0x4a0>
						if( ( USBFS_SetupReqType & USB_REQ_RECIP_MASK ) == USB_REQ_RECIP_ENDP )
     a32:	01faf693          	andi	a3,s5,31
     a36:	4789                	li	a5,2
     a38:	ecf693e3          	bne	a3,a5,8fe <USBFS_IRQHandler+0x3c6>
							if( (uint8_t)( USBFS_IndexValue & 0xFF ) == USB_REQ_FEAT_ENDP_HALT )
     a3c:	0ffd7793          	zext.b	a5,s10
     a40:	ea079fe3          	bnez	a5,8fe <USBFS_IRQHandler+0x3c6>
								if( ep < FUSB_CONFIG_EPS ) 
     a44:	00cc7793          	andi	a5,s8,12
     a48:	ea079be3          	bnez	a5,8fe <USBFS_IRQHandler+0x3c6>
									if( USBFS_SetupReqIndex & DEF_UEP_IN  && ctx->endpoint_mode[ep] == -1 ) UEP_CTRL_TX(ep) = USBFS_UEP_T_RES_NAK;
     a4c:	080bf713          	andi	a4,s7,128
     a50:	ea0707e3          	beqz	a4,8fe <USBFS_IRQHandler+0x3c6>
     a54:	04440793          	addi	a5,s0,68
     a58:	078a                	slli	a5,a5,0x2
     a5a:	97a6                	add	a5,a5,s1
     a5c:	4398                	lw	a4,0(a5)
     a5e:	57fd                	li	a5,-1
     a60:	e8f71fe3          	bne	a4,a5,8fe <USBFS_IRQHandler+0x3c6>
     a64:	400237b7          	lui	a5,0x40023
     a68:	040a                	slli	s0,s0,0x2
     a6a:	42278793          	addi	a5,a5,1058 # 40023422 <_eusrstack+0x2001e422>
     a6e:	943e                	add	s0,s0,a5
     a70:	00d41023          	sh	a3,0(s0)
						break;
     a74:	b795                	j	9d8 <USBFS_IRQHandler+0x4a0>
						else if( ( USBFS_SetupReqType & USB_REQ_RECIP_MASK ) == USB_REQ_RECIP_ENDP )
     a76:	01faf693          	andi	a3,s5,31
     a7a:	4789                	li	a5,2
     a7c:	e8f691e3          	bne	a3,a5,8fe <USBFS_IRQHandler+0x3c6>
							if( (uint8_t)( USBFS_IndexValue & 0xFF ) == USB_REQ_FEAT_ENDP_HALT )
     a80:	0ffd7793          	zext.b	a5,s10
     a84:	e6079de3          	bnez	a5,8fe <USBFS_IRQHandler+0x3c6>
								if( ep < FUSB_CONFIG_EPS )
     a88:	00aa5793          	srli	a5,s4,0xa
     a8c:	8b8d                	andi	a5,a5,3
     a8e:	f7a9                	bnez	a5,9d8 <USBFS_IRQHandler+0x4a0>
									if( (USBFS_SetupReqIndex & DEF_UEP_IN) && ctx->endpoint_mode[ep] == -1 )UEP_CTRL_TX(ep) = ( UEP_CTRL_TX(ep) & ~USBFS_UEP_T_RES_MASK ) | USBFS_UEP_T_RES_STALL;
     a90:	080bf713          	andi	a4,s7,128
     a94:	e60705e3          	beqz	a4,8fe <USBFS_IRQHandler+0x3c6>
     a98:	04440793          	addi	a5,s0,68
     a9c:	078a                	slli	a5,a5,0x2
     a9e:	97a6                	add	a5,a5,s1
     aa0:	4398                	lw	a4,0(a5)
     aa2:	57fd                	li	a5,-1
     aa4:	e4f71de3          	bne	a4,a5,8fe <USBFS_IRQHandler+0x3c6>
     aa8:	400237b7          	lui	a5,0x40023
     aac:	42278793          	addi	a5,a5,1058 # 40023422 <_eusrstack+0x2001e422>
     ab0:	040a                	slli	s0,s0,0x2
     ab2:	943e                	add	s0,s0,a5
     ab4:	00045783          	lhu	a5,0(s0)
     ab8:	0037e793          	ori	a5,a5,3
     abc:	00f41023          	sh	a5,0(s0)
     ac0:	bf21                	j	9d8 <USBFS_IRQHandler+0x4a0>
						ctrl0buff[0] = 0x00;
     ac2:	00048823          	sb	zero,16(s1)
						if( USBFS_SetupReqLen > 1 ) USBFS_SetupReqLen = 1;
     ac6:	f16059e3          	blez	s6,9d8 <USBFS_IRQHandler+0x4a0>
     aca:	4985                	li	s3,1
     acc:	b731                	j	9d8 <USBFS_IRQHandler+0x4a0>
						ctrl0buff[0] = 0x00;
     ace:	00049823          	sh	zero,16(s1)
						if( ( USBFS_SetupReqType & USB_REQ_RECIP_MASK ) == USB_REQ_RECIP_DEVICE )
     ad2:	01faf793          	andi	a5,s5,31
     ad6:	c3b1                	beqz	a5,b1a <USBFS_IRQHandler+0x5e2>
						else if( ( USBFS_SetupReqType & USB_REQ_RECIP_MASK ) == USB_REQ_RECIP_ENDP )
     ad8:	4709                	li	a4,2
     ada:	e2e792e3          	bne	a5,a4,8fe <USBFS_IRQHandler+0x3c6>
							if( ep < FUSB_CONFIG_EPS )
     ade:	00cc7793          	andi	a5,s8,12
     ae2:	e0079ee3          	bnez	a5,8fe <USBFS_IRQHandler+0x3c6>
								if( USBFS_SetupReqIndex & DEF_UEP_IN && ctx->endpoint_mode[ep] == -1 ) ctrl0buff[0] = ( UEP_CTRL_TX(ep) & USBFS_UEP_T_RES_MASK ) == USBFS_UEP_T_RES_STALL;
     ae6:	080bf713          	andi	a4,s7,128
     aea:	e0070ae3          	beqz	a4,8fe <USBFS_IRQHandler+0x3c6>
     aee:	04440793          	addi	a5,s0,68
     af2:	078a                	slli	a5,a5,0x2
     af4:	97a6                	add	a5,a5,s1
     af6:	4398                	lw	a4,0(a5)
     af8:	57fd                	li	a5,-1
     afa:	e0f712e3          	bne	a4,a5,8fe <USBFS_IRQHandler+0x3c6>
     afe:	400237b7          	lui	a5,0x40023
     b02:	42278793          	addi	a5,a5,1058 # 40023422 <_eusrstack+0x2001e422>
     b06:	040a                	slli	s0,s0,0x2
     b08:	943e                	add	s0,s0,a5
     b0a:	00045783          	lhu	a5,0(s0)
     b0e:	8b8d                	andi	a5,a5,3
     b10:	17f5                	addi	a5,a5,-3
     b12:	0017b793          	seqz	a5,a5
     b16:	00f48823          	sb	a5,16(s1)
						if( USBFS_SetupReqLen > 2 )
     b1a:	4789                	li	a5,2
     b1c:	eb67dee3          	bge	a5,s6,9d8 <USBFS_IRQHandler+0x4a0>
     b20:	89be                	mv	s3,a5
     b22:	bd5d                	j	9d8 <USBFS_IRQHandler+0x4a0>
					if( USBFS_SetupReqLen == 0 )
     b24:	400237b7          	lui	a5,0x40023
     b28:	42278793          	addi	a5,a5,1058 # 40023422 <_eusrstack+0x2001e422>
						UEP_CTRL_TX(0) = CHECK_USBFS_UEP_T_AUTO_TOG | USBFS_UEP_R_RES_ACK | USBFS_UEP_R_TOG;
     b2c:	09000713          	li	a4,144
					if( USBFS_SetupReqLen == 0 )
     b30:	00099863          	bnez	s3,b40 <USBFS_IRQHandler+0x608>
						UEP_CTRL_LEN(0) = 0;
     b34:	40023737          	lui	a4,0x40023
     b38:	42071023          	sh	zero,1056(a4) # 40023420 <_eusrstack+0x2001e420>
						UEP_CTRL_TX(0) = USBFS_UEP_T_RES_ACK | USBFS_UEP_T_TOG;
     b3c:	04000713          	li	a4,64
						UEP_CTRL_TX(0) = CHECK_USBFS_UEP_T_AUTO_TOG | USBFS_UEP_R_RES_ACK | USBFS_UEP_R_TOG;
     b40:	00e79023          	sh	a4,0(a5)
     b44:	b461                	j	5cc <USBFS_IRQHandler+0x94>
	else if( intfgst & CRB_UIF_BUS_RST )
     b46:	001a7793          	andi	a5,s4,1
     b4a:	c795                	beqz	a5,b76 <USBFS_IRQHandler+0x63e>
		if( usb_debug ) printf("[USB] RESET\n");
     b4c:	c0c1c783          	lbu	a5,-1012(gp) # 20000008 <usb_debug>
     b50:	c789                	beqz	a5,b5a <USBFS_IRQHandler+0x622>
     b52:	6505                	lui	a0,0x1
     b54:	41850513          	addi	a0,a0,1048 # 1418 <language+0xc4>
     b58:	2cf9                	jal	e36 <puts>
		ctx->USBFS_DevConfig = 0;
     b5a:	200017b7          	lui	a5,0x20001
     b5e:	c407a623          	sw	zero,-948(a5) # 20000c4c <USBFSCTX+0x8>
		USBFS->DEV_ADDR = 0;
     b62:	40023437          	lui	s0,0x40023
     b66:	400401a3          	sb	zero,1027(s0) # 40023403 <_eusrstack+0x2001e403>
		USBFS_InternalFinishSetup();
     b6a:	f2aff0ef          	jal	294 <USBFS_InternalFinishSetup>
		USBFS->INT_FG = CRB_UIF_BUS_RST;
     b6e:	4785                	li	a5,1
     b70:	40f40323          	sb	a5,1030(s0)
     b74:	b48d                	j	5d6 <USBFS_IRQHandler+0x9e>
	else if( intfgst & CRB_UIF_SUSPEND )
     b76:	004a7793          	andi	a5,s4,4
     b7a:	c3a1                	beqz	a5,bba <USBFS_IRQHandler+0x682>
		if( usb_debug ) printf("[USB] SUSPEND\n");
     b7c:	c0c1c783          	lbu	a5,-1012(gp) # 20000008 <usb_debug>
     b80:	c789                	beqz	a5,b8a <USBFS_IRQHandler+0x652>
     b82:	6505                	lui	a0,0x1
     b84:	42450513          	addi	a0,a0,1060 # 1424 <language+0xd0>
     b88:	247d                	jal	e36 <puts>
		USBFS->INT_FG = USBFS_UMS_SUSPEND;
     b8a:	4791                	li	a5,4
     b8c:	40023437          	lui	s0,0x40023
     b90:	40f40323          	sb	a5,1030(s0) # 40023406 <_eusrstack+0x2001e406>
		Delay_Us(10);
     b94:	fa8ff0ef          	jal	33c <DelaySysTick.constprop.0>
		if( USBFS->MIS_ST & USBFS_UMS_SUSPEND )
     b98:	40544683          	lbu	a3,1029(s0)
			ctx->USBFS_DevSleepStatus |= 0x02;
     b9c:	20001737          	lui	a4,0x20001
     ba0:	c4470713          	addi	a4,a4,-956 # 20000c44 <USBFSCTX>
		if( USBFS->MIS_ST & USBFS_UMS_SUSPEND )
     ba4:	8a91                	andi	a3,a3,4
			ctx->USBFS_DevSleepStatus |= 0x02;
     ba6:	00a74783          	lbu	a5,10(a4)
		if( USBFS->MIS_ST & USBFS_UMS_SUSPEND )
     baa:	c691                	beqz	a3,bb6 <USBFS_IRQHandler+0x67e>
			ctx->USBFS_DevSleepStatus |= 0x02;
     bac:	0027e793          	ori	a5,a5,2
			ctx->USBFS_DevSleepStatus &= ~0x02;
     bb0:	00f70523          	sb	a5,10(a4)
     bb4:	b40d                	j	5d6 <USBFS_IRQHandler+0x9e>
     bb6:	9bf5                	andi	a5,a5,-3
     bb8:	bfe5                	j	bb0 <USBFS_IRQHandler+0x678>
			USBFS->INT_FG = intfgst & 0xff;
     bba:	400237b7          	lui	a5,0x40023
     bbe:	0ffa7713          	zext.b	a4,s4
     bc2:	40e78323          	sb	a4,1030(a5) # 40023406 <_eusrstack+0x2001e406>
			if( usb_debug) printf("[USB] intfgst = %04x\n",intfgst);
     bc6:	c0c1c783          	lbu	a5,-1012(gp) # 20000008 <usb_debug>
     bca:	a00786e3          	beqz	a5,5d6 <USBFS_IRQHandler+0x9e>
     bce:	6505                	lui	a0,0x1
     bd0:	85d2                	mv	a1,s4
     bd2:	43450513          	addi	a0,a0,1076 # 1434 <language+0xe0>
     bd6:	24c9                	jal	e98 <printf>
}
     bd8:	bafd                	j	5d6 <USBFS_IRQHandler+0x9e>

00000bda <strlen>:
	for (; *s; s++);
     bda:	87aa                	mv	a5,a0
     bdc:	0007c703          	lbu	a4,0(a5)
     be0:	e701                	bnez	a4,be8 <strlen+0xe>
}
     be2:	40a78533          	sub	a0,a5,a0
     be6:	8082                	ret
	for (; *s; s++);
     be8:	0785                	addi	a5,a5,1
     bea:	bfcd                	j	bdc <strlen+0x2>

00000bec <mini_vpprintf>:
{
     bec:	7175                	addi	sp,sp,-144
     bee:	c522                	sw	s0,136(sp)
     bf0:	d2e6                	sw	s9,100(sp)
     bf2:	c706                	sw	ra,140(sp)
     bf4:	c326                	sw	s1,132(sp)
     bf6:	c14a                	sw	s2,128(sp)
     bf8:	dece                	sw	s3,124(sp)
     bfa:	dcd2                	sw	s4,120(sp)
     bfc:	dad6                	sw	s5,116(sp)
     bfe:	d8da                	sw	s6,112(sp)
     c00:	d6de                	sw	s7,108(sp)
     c02:	d4e2                	sw	s8,104(sp)
     c04:	d0ea                	sw	s10,96(sp)
     c06:	ceee                	sw	s11,92(sp)
     c08:	8432                	mv	s0,a2
     c0a:	8cb6                	mv	s9,a3
	if(puts == (void*)0) {
     c0c:	e131                	bnez	a0,c50 <mini_vpprintf+0x64>
		puts = _puts; buf = (void*)0;
     c0e:	4901                	li	s2,0
     c10:	16a00493          	li	s1,362
	int n = 0;
     c14:	4981                	li	s3,0
		if (ch!='%') {
     c16:	02500a93          	li	s5,37
			if (ch == '0') pad_char = '0';
     c1a:	03000a13          	li	s4,48
			while (ch >= '0' && ch <= '9') {
     c1e:	4b25                	li	s6,9
				pad_to = pad_to * 10 + (ch - '0');
     c20:	4ba9                	li	s7,10
	while ((ch=*(fmt++))) {
     c22:	00044783          	lbu	a5,0(s0)
     c26:	00140d13          	addi	s10,s0,1
     c2a:	00f10fa3          	sb	a5,31(sp)
     c2e:	e785                	bnez	a5,c56 <mini_vpprintf+0x6a>
}
     c30:	40ba                	lw	ra,140(sp)
     c32:	442a                	lw	s0,136(sp)
     c34:	449a                	lw	s1,132(sp)
     c36:	490a                	lw	s2,128(sp)
     c38:	5a66                	lw	s4,120(sp)
     c3a:	5ad6                	lw	s5,116(sp)
     c3c:	5b46                	lw	s6,112(sp)
     c3e:	5bb6                	lw	s7,108(sp)
     c40:	5c26                	lw	s8,104(sp)
     c42:	5c96                	lw	s9,100(sp)
     c44:	5d06                	lw	s10,96(sp)
     c46:	4df6                	lw	s11,92(sp)
     c48:	854e                	mv	a0,s3
     c4a:	59f6                	lw	s3,124(sp)
     c4c:	6149                	addi	sp,sp,144
     c4e:	8082                	ret
     c50:	84aa                	mv	s1,a0
     c52:	892e                	mv	s2,a1
     c54:	b7c1                	j	c14 <mini_vpprintf+0x28>
		if (ch!='%') {
     c56:	01578c63          	beq	a5,s5,c6e <mini_vpprintf+0x82>
			len = puts(&ch, len, buf);
     c5a:	864a                	mv	a2,s2
     c5c:	4585                	li	a1,1
     c5e:	01f10513          	addi	a0,sp,31
     c62:	9482                	jalr	s1
     c64:	8c66                	mv	s8,s9
	while ((ch=*(fmt++))) {
     c66:	846a                	mv	s0,s10
		n = n + len;
     c68:	99aa                	add	s3,s3,a0
     c6a:	8ce2                	mv	s9,s8
     c6c:	bf5d                	j	c22 <mini_vpprintf+0x36>
			ch=*(fmt++);
     c6e:	00144703          	lbu	a4,1(s0)
     c72:	00240793          	addi	a5,s0,2
			if (ch == '0') pad_char = '0';
     c76:	8d52                	mv	s10,s4
			ch=*(fmt++);
     c78:	00e10fa3          	sb	a4,31(sp)
			if (ch == '0') pad_char = '0';
     c7c:	07471e63          	bne	a4,s4,cf8 <mini_vpprintf+0x10c>
				ch=*(fmt++);
     c80:	843e                	mv	s0,a5
     c82:	4681                	li	a3,0
     c84:	4781                	li	a5,0
     c86:	a801                	j	c96 <mini_vpprintf+0xaa>
				pad_to = pad_to * 10 + (ch - '0');
     c88:	037787b3          	mul	a5,a5,s7
				ch=*(fmt++);
     c8c:	00044703          	lbu	a4,0(s0)
     c90:	0405                	addi	s0,s0,1
     c92:	4685                	li	a3,1
				pad_to = pad_to * 10 + (ch - '0');
     c94:	97b2                	add	a5,a5,a2
			while (ch >= '0' && ch <= '9') {
     c96:	fd070613          	addi	a2,a4,-48
     c9a:	0ff67593          	zext.b	a1,a2
     c9e:	febb75e3          	bgeu	s6,a1,c88 <mini_vpprintf+0x9c>
     ca2:	c299                	beqz	a3,ca8 <mini_vpprintf+0xbc>
     ca4:	00e10fa3          	sb	a4,31(sp)
			if(pad_to > (signed int) sizeof(bf)) {
     ca8:	46e1                	li	a3,24
     caa:	8dbe                	mv	s11,a5
     cac:	00f6d363          	bge	a3,a5,cb2 <mini_vpprintf+0xc6>
     cb0:	8db6                	mv	s11,a3
			if (ch == 'l') {
     cb2:	06c00693          	li	a3,108
			char l = 0;
     cb6:	4601                	li	a2,0
			if (ch == 'l') {
     cb8:	00d71863          	bne	a4,a3,cc8 <mini_vpprintf+0xdc>
				ch=*(fmt++);
     cbc:	00044703          	lbu	a4,0(s0)
				l = 1;
     cc0:	4605                	li	a2,1
				ch=*(fmt++);
     cc2:	0405                	addi	s0,s0,1
     cc4:	00e10fa3          	sb	a4,31(sp)
			switch (ch) {
     cc8:	01f14683          	lbu	a3,31(sp)
     ccc:	06400713          	li	a4,100
     cd0:	06e68363          	beq	a3,a4,d36 <mini_vpprintf+0x14a>
     cd4:	02d76563          	bltu	a4,a3,cfe <mini_vpprintf+0x112>
     cd8:	05800793          	li	a5,88
     cdc:	0af68063          	beq	a3,a5,d7c <mini_vpprintf+0x190>
     ce0:	06300793          	li	a5,99
     ce4:	0af68e63          	beq	a3,a5,da0 <mini_vpprintf+0x1b4>
     ce8:	d6a1                	beqz	a3,c30 <mini_vpprintf+0x44>
					len = puts(&ch, len, buf);
     cea:	864a                	mv	a2,s2
     cec:	4585                	li	a1,1
     cee:	01f10513          	addi	a0,sp,31
     cf2:	9482                	jalr	s1
					break;
     cf4:	8c66                	mv	s8,s9
     cf6:	bf8d                	j	c68 <mini_vpprintf+0x7c>
			char pad_char = ' ';
     cf8:	02000d13          	li	s10,32
     cfc:	b751                	j	c80 <mini_vpprintf+0x94>
			switch (ch) {
     cfe:	07500713          	li	a4,117
     d02:	02e68a63          	beq	a3,a4,d36 <mini_vpprintf+0x14a>
     d06:	07800713          	li	a4,120
     d0a:	06e68963          	beq	a3,a4,d7c <mini_vpprintf+0x190>
     d0e:	07300713          	li	a4,115
     d12:	fce69ce3          	bne	a3,a4,cea <mini_vpprintf+0xfe>
					ptr = va_arg(va, char*);
     d16:	004c8c13          	addi	s8,s9,4
     d1a:	000cac83          	lw	s9,0(s9)
     d1e:	c63e                	sw	a5,12(sp)
					len = mini_strlen(ptr);
     d20:	8566                	mv	a0,s9
     d22:	3d65                	jal	bda <strlen>
					if (pad_to > 0) {
     d24:	47b2                	lw	a5,12(sp)
					len = mini_strlen(ptr);
     d26:	85aa                	mv	a1,a0
					if (pad_to > 0) {
     d28:	08f05963          	blez	a5,dba <mini_vpprintf+0x1ce>
						len = mini_pad(ptr, len, pad_char, pad_to, bf);
     d2c:	1838                	addi	a4,sp,56
     d2e:	86ee                	mv	a3,s11
     d30:	866a                	mv	a2,s10
     d32:	8566                	mv	a0,s9
     d34:	a025                	j	d5c <mini_vpprintf+0x170>
						len = mini_itoa(va_arg(va, unsigned long), 10, 0, (ch=='u'), bf2);
     d36:	004c8c13          	addi	s8,s9,4
					if(l) {
     d3a:	ca05                	beqz	a2,d6a <mini_vpprintf+0x17e>
						len = mini_itoa(va_arg(va, unsigned long), 10, 0, (ch=='u'), bf2);
     d3c:	f8b68693          	addi	a3,a3,-117
     d40:	1018                	addi	a4,sp,32
     d42:	0016b693          	seqz	a3,a3
     d46:	000ca503          	lw	a0,0(s9)
     d4a:	4601                	li	a2,0
     d4c:	45a9                	li	a1,10
     d4e:	cb6ff0ef          	jal	204 <mini_itoa.part.0>
					len = mini_pad(bf2, len, pad_char, pad_to, bf);
     d52:	1838                	addi	a4,sp,56
     d54:	86ee                	mv	a3,s11
     d56:	866a                	mv	a2,s10
     d58:	85aa                	mv	a1,a0
					len = mini_pad(bf2, len, pad_char, pad_to, bf);
     d5a:	1008                	addi	a0,sp,32
     d5c:	b84ff0ef          	jal	e0 <mini_pad>
     d60:	85aa                	mv	a1,a0
					len = puts(bf, len, buf);
     d62:	864a                	mv	a2,s2
     d64:	1828                	addi	a0,sp,56
     d66:	9482                	jalr	s1
					break;
     d68:	b701                	j	c68 <mini_vpprintf+0x7c>
						if(ch == 'u') {
     d6a:	07500793          	li	a5,117
     d6e:	1018                	addi	a4,sp,32
     d70:	00f69463          	bne	a3,a5,d78 <mini_vpprintf+0x18c>
	if (radix > 16)
     d74:	4685                	li	a3,1
     d76:	bfc1                	j	d46 <mini_vpprintf+0x15a>
     d78:	4681                	li	a3,0
     d7a:	b7f1                	j	d46 <mini_vpprintf+0x15a>
					if(l) {
     d7c:	000ca503          	lw	a0,0(s9)
						len = mini_itoa(va_arg(va, unsigned long), 16, (ch=='X'), 1, bf2);
     d80:	fa868613          	addi	a2,a3,-88
     d84:	1018                	addi	a4,sp,32
     d86:	4685                	li	a3,1
     d88:	00163613          	seqz	a2,a2
     d8c:	45c1                	li	a1,16
     d8e:	c76ff0ef          	jal	204 <mini_itoa.part.0>
						len = mini_itoa(va_arg(va, unsigned long), 10, 0, (ch=='u'), bf2);
     d92:	004c8c13          	addi	s8,s9,4
	if (radix > 16)
     d96:	85aa                	mv	a1,a0
					len = mini_pad(bf2, len, pad_char, pad_to, bf);
     d98:	1838                	addi	a4,sp,56
     d9a:	86ee                	mv	a3,s11
     d9c:	866a                	mv	a2,s10
     d9e:	bf75                	j	d5a <mini_vpprintf+0x16e>
					ch = (char)(va_arg(va, int));
     da0:	000ca783          	lw	a5,0(s9)
     da4:	004c8c13          	addi	s8,s9,4
					len = mini_pad(&ch, 1, pad_char, pad_to, bf);
     da8:	1838                	addi	a4,sp,56
					ch = (char)(va_arg(va, int));
     daa:	00f10fa3          	sb	a5,31(sp)
					len = mini_pad(&ch, 1, pad_char, pad_to, bf);
     dae:	86ee                	mv	a3,s11
     db0:	866a                	mv	a2,s10
     db2:	4585                	li	a1,1
     db4:	01f10513          	addi	a0,sp,31
     db8:	b755                	j	d5c <mini_vpprintf+0x170>
						len = puts(ptr, len, buf);
     dba:	864a                	mv	a2,s2
     dbc:	8566                	mv	a0,s9
     dbe:	b765                	j	d66 <mini_vpprintf+0x17a>

00000dc0 <memcpy>:
	for (; n; n--) *d++ = *s++;
     dc0:	4781                	li	a5,0
     dc2:	00f61363          	bne	a2,a5,dc8 <memcpy+0x8>
}
     dc6:	8082                	ret
	for (; n; n--) *d++ = *s++;
     dc8:	00f58733          	add	a4,a1,a5
     dcc:	00074683          	lbu	a3,0(a4)
     dd0:	00f50733          	add	a4,a0,a5
     dd4:	0785                	addi	a5,a5,1
     dd6:	00d70023          	sb	a3,0(a4)
     dda:	b7e5                	j	dc2 <memcpy+0x2>

00000ddc <__puts_cdc>:
	}
	NVIC_EnableIRQ(USB_IRQn);
}

static int __puts_cdc( char *s, int len, void *buf )
{
     ddc:	1141                	addi	sp,sp,-16
     dde:	c422                	sw	s0,8(sp)
	NVIC->IRER[((uint32_t)(IRQn) >> 5)] = (1 << ((uint32_t)(IRQn) & 0x1F));
     de0:	e000e7b7          	lui	a5,0xe000e
     de4:	6709                	lui	a4,0x2
     de6:	c606                	sw	ra,12(sp)
     de8:	18e7a223          	sw	a4,388(a5) # e000e184 <_eusrstack+0xc0009184>
	if((len+cdc.rx_remain) < UART_RX_BUF_SIZE)
     dec:	200017b7          	lui	a5,0x20001
     df0:	c0c78793          	addi	a5,a5,-1012 # 20000c0c <cdc>
     df4:	4f98                	lw	a4,24(a5)
     df6:	7ff00693          	li	a3,2047
{
     dfa:	842e                	mv	s0,a1
	if((len+cdc.rx_remain) < UART_RX_BUF_SIZE)
     dfc:	972e                	add	a4,a4,a1
     dfe:	02e6e263          	bltu	a3,a4,e22 <__puts_cdc+0x46>
		uint8_t *buf_empty_part = (uint8_t*)(uart_rx_buffer + cdc.rx_pos+cdc.rx_remain);
     e02:	4f98                	lw	a4,24(a5)
     e04:	4bd4                	lw	a3,20(a5)
		memcpy(buf_empty_part, data, len);
     e06:	862e                	mv	a2,a1
		cdc.rx_timeout = 0;
     e08:	0207a023          	sw	zero,32(a5)
		uint8_t *buf_empty_part = (uint8_t*)(uart_rx_buffer + cdc.rx_pos+cdc.rx_remain);
     e0c:	9736                	add	a4,a4,a3
		cdc.rx_remain += len;
     e0e:	4f94                	lw	a3,24(a5)
     e10:	96ae                	add	a3,a3,a1
		memcpy(buf_empty_part, data, len);
     e12:	85aa                	mv	a1,a0
     e14:	20000537          	lui	a0,0x20000
     e18:	00c50513          	addi	a0,a0,12 # 2000000c <uart_rx_buffer>
     e1c:	953a                	add	a0,a0,a4
		cdc.rx_remain += len;
     e1e:	cf94                	sw	a3,24(a5)
		memcpy(buf_empty_part, data, len);
     e20:	3745                	jal	dc0 <memcpy>
	(void)buf;//To zawiera wskanika na oryginalny string z printf

	write_cdc((uint8_t*)s, len);
	return len;
}
     e22:	40b2                	lw	ra,12(sp)
     e24:	8522                	mv	a0,s0
     e26:	4422                	lw	s0,8(sp)
	NVIC->IENR[((uint32_t)(IRQn) >> 5)] = (1 << ((uint32_t)(IRQn) & 0x1F));
     e28:	e000e7b7          	lui	a5,0xe000e
     e2c:	6709                	lui	a4,0x2
     e2e:	10e7a223          	sw	a4,260(a5) # e000e104 <_eusrstack+0xc0009104>
     e32:	0141                	addi	sp,sp,16
     e34:	8082                	ret

00000e36 <puts>:
{
     e36:	1141                	addi	sp,sp,-16
     e38:	c606                	sw	ra,12(sp)
     e3a:	c422                	sw	s0,8(sp)
     e3c:	c226                	sw	s1,4(sp)
     e3e:	84aa                	mv	s1,a0
	int sl = strlen( s );
     e40:	3b69                	jal	bda <strlen>
     e42:	842a                	mv	s0,a0
	_write(0, s, sl );
     e44:	85aa                	mv	a1,a0
     e46:	8526                	mv	a0,s1
     e48:	d30ff0ef          	jal	378 <_write.constprop.0>
	_write(0, "\n", 1 );
     e4c:	6505                	lui	a0,0x1
     e4e:	4585                	li	a1,1
     e50:	3ec50513          	addi	a0,a0,1004 # 13ec <language+0x98>
     e54:	d24ff0ef          	jal	378 <_write.constprop.0>
}
     e58:	40b2                	lw	ra,12(sp)
     e5a:	00140513          	addi	a0,s0,1
     e5e:	4422                	lw	s0,8(sp)
     e60:	4492                	lw	s1,4(sp)
     e62:	0141                	addi	sp,sp,16
     e64:	8082                	ret

00000e66 <SystemInit>:
		FLASH->ACTLR = FLASH_ACTLR_LATENCY_1;
	#else
		FLASH->ACTLR = FLASH_ACTLR_LATENCY_0;
	#endif
#elif defined(CH32X03x)
	FLASH->ACTLR = FLASH_ACTLR_LATENCY_2;                   // +2 Cycle Latency (Recommended per TRM)
     e66:	400227b7          	lui	a5,0x40022
     e6a:	4709                	li	a4,2
     e6c:	c398                	sw	a4,0(a5)
	#endif
	#if defined(FUNCONF_USE_PLL) && FUNCONF_USE_PLL
		RCC->CFGR0 = BASE_CFGR0;
		RCC->CTLR  = BASE_CTLR | RCC_HSION | RCC_PLLON; 			// Use HSI, enable PLL.
	#else
		RCC->CFGR0 = RCC_HPRE_DIV1;                               	// PLLCLK = HCLK = SYSCLK = APB1
     e6e:	400217b7          	lui	a5,0x40021
		RCC->CTLR  = BASE_CTLR | RCC_HSION;     					// Use HSI, Only.
     e72:	00080737          	lui	a4,0x80
		RCC->CFGR0 = RCC_HPRE_DIV1;                               	// PLLCLK = HCLK = SYSCLK = APB1
     e76:	0007a223          	sw	zero,4(a5) # 40021004 <_eusrstack+0x2001c004>
		RCC->CTLR  = BASE_CTLR | RCC_HSION;     					// Use HSI, Only.
     e7a:	08170713          	addi	a4,a4,129 # 80081 <main.c.7dc03427+0x7d7b6>
     e7e:	c398                	sw	a4,0(a5)
		FLASH->ACTLR = FLASH_ACTLR_LATENCY_0;
	#endif
#endif

#ifndef CH5xx
	RCC->INTR  = 0x009F0000;                               // Clear PLL, CSSC, HSE, HSI and LSI ready flags.
     e80:	009f0737          	lui	a4,0x9f0
     e84:	c798                	sw	a4,8(a5)
	*DMDATA1 = 0x00;
     e86:	e00007b7          	lui	a5,0xe0000
     e8a:	3807a223          	sw	zero,900(a5) # e0000384 <_eusrstack+0xbfffb384>
	*DMDATA0 = 0x80;
     e8e:	08000713          	li	a4,128
     e92:	38e7a023          	sw	a4,896(a5)
	SetupDebugPrintf();
#endif
#if defined(FUNCONF_SUPPORT_CONSTRUCTORS) && FUNCONF_SUPPORT_CONSTRUCTORS
	CallConstructors();
#endif
}
     e96:	8082                	ret

00000e98 <printf>:

int printf( const char* format, ... )
{
     e98:	7139                	addi	sp,sp,-64
     e9a:	d432                	sw	a2,40(sp)
	va_list args;
	va_start( args, format );
	int ret_status = mini_vpprintf(__puts_cdc, 0, format, args);
     e9c:	862a                	mv	a2,a0
     e9e:	6505                	lui	a0,0x1
{
     ea0:	d22e                	sw	a1,36(sp)
     ea2:	d636                	sw	a3,44(sp)
	int ret_status = mini_vpprintf(__puts_cdc, 0, format, args);
     ea4:	4581                	li	a1,0
	va_start( args, format );
     ea6:	1054                	addi	a3,sp,36
	int ret_status = mini_vpprintf(__puts_cdc, 0, format, args);
     ea8:	ddc50513          	addi	a0,a0,-548 # ddc <__puts_cdc>
{
     eac:	ce06                	sw	ra,28(sp)
     eae:	d83a                	sw	a4,48(sp)
     eb0:	da3e                	sw	a5,52(sp)
     eb2:	dc42                	sw	a6,56(sp)
     eb4:	de46                	sw	a7,60(sp)
	va_start( args, format );
     eb6:	c636                	sw	a3,12(sp)
	int ret_status = mini_vpprintf(__puts_cdc, 0, format, args);
     eb8:	3b15                	jal	bec <mini_vpprintf>
	va_end( args );
	return ret_status;
     eba:	40f2                	lw	ra,28(sp)
     ebc:	6121                	addi	sp,sp,64
     ebe:	8082                	ret

00000ec0 <main>:
	printf("Manuf ID: 0x%x", manuf_id);
	printf(" Device ID: 0x%x\n\r", device_id);
}

int main()
{
     ec0:	7139                	addi	sp,sp,-64
     ec2:	de06                	sw	ra,60(sp)
     ec4:	dc22                	sw	s0,56(sp)
     ec6:	da26                	sw	s1,52(sp)
     ec8:	d84a                	sw	s2,48(sp)
     eca:	d64e                	sw	s3,44(sp)
     ecc:	d452                	sw	s4,40(sp)
     ece:	d256                	sw	s5,36(sp)
     ed0:	d05a                	sw	s6,32(sp)
     ed2:	ce5e                	sw	s7,28(sp)
     ed4:	cc62                	sw	s8,24(sp)
     ed6:	ca66                	sw	s9,20(sp)
     ed8:	c66e                	sw	s11,12(sp)
     eda:	c86a                	sw	s10,16(sp)
	SystemInit();
     edc:	3769                	jal	e66 <SystemInit>
volatile uint64_t millis_cnt = 0;

void systick_init(void)
{

	SysTick->CTLR = 0;
     ede:	e000f7b7          	lui	a5,0xe000f
	SysTick->CMP = DELAY_MS_TIME - 1;
     ee2:	6631                	lui	a2,0xc
	SysTick->CTLR = 0;
     ee4:	0007a023          	sw	zero,0(a5) # e000f000 <_eusrstack+0xc000a000>
	SysTick->CMP = DELAY_MS_TIME - 1;
     ee8:	b7f60613          	addi	a2,a2,-1153 # bb7f <main.c.7dc03427+0x92b4>
     eec:	cb90                	sw	a2,16(a5)
     eee:	4681                	li	a3,0
     ef0:	cbd4                	sw	a3,20(a5)
	SysTick->CNT = 0;
     ef2:	4601                	li	a2,0
     ef4:	c790                	sw	a2,8(a5)
     ef6:	4681                	li	a3,0
     ef8:	c7d4                	sw	a3,12(a5)
	SysTick->CTLR |= SYSTICK_CTLR_STE |  // Enable Counter
     efa:	4398                	lw	a4,0(a5)
                  SYSTICK_CTLR_STIE |  // Enable Interrupts
                  SYSTICK_CTLR_STCLK;  // Set Clock Source to HCLK/1
	
	cdc.rx_timeout = 0;
     efc:	20001437          	lui	s0,0x20001
	SysTick->CTLR |= SYSTICK_CTLR_STE |  // Enable Counter
     f00:	00776713          	ori	a4,a4,7
     f04:	c398                	sw	a4,0(a5)
	cdc.usb_timeout = 0;
	millis_cnt = 0;
     f06:	c0c1a223          	sw	a2,-1020(gp) # 20000000 <millis_cnt>
	cdc.rx_timeout = 0;
     f0a:	c0c40713          	addi	a4,s0,-1012 # 20000c0c <cdc>
     f0e:	02072023          	sw	zero,32(a4) # 9f0020 <main.c.7dc03427+0x9ed755>
	cdc.usb_timeout = 0;
     f12:	00072623          	sw	zero,12(a4)
	millis_cnt = 0;
     f16:	c0d1a423          	sw	a3,-1016(gp) # 20000004 <millis_cnt+0x4>
     f1a:	e000eb37          	lui	s6,0xe000e
     f1e:	6785                	lui	a5,0x1
     f20:	10fb2023          	sw	a5,256(s6) # e000e100 <_eusrstack+0xc0009100>
	systick_init();

	funGpioInitAll();
     f24:	400217b7          	lui	a5,0x40021
     f28:	4f94                	lw	a3,24(a5)
	cdc.tx_wrap_pos = UART_TX_BUF_SIZE;
     f2a:	40000a93          	li	s5,1024
	USBFS->UEP2_DMA = (uintptr_t)uart_tx_buffer;
     f2e:	200019b7          	lui	s3,0x20001
     f32:	01d6e693          	ori	a3,a3,29
     f36:	cf94                	sw	a3,24(a5)
	RCC->AHBPCENR = RCC_AHBPeriph_SRAM | RCC_AHBPeriph_DMA1;
     f38:	4695                	li	a3,5
     f3a:	cbd4                	sw	a3,20(a5)
	cdc.cdc_cfg[0] = (uint8_t)(UART_DEFALT_BAUD);
     f3c:	66f1                	lui	a3,0x1c
     f3e:	20068693          	addi	a3,a3,512 # 1c200 <main.c.7dc03427+0x19935>
     f42:	c354                	sw	a3,4(a4)
	USBFS->UEP2_DMA = (uintptr_t)uart_tx_buffer;
     f44:	400234b7          	lui	s1,0x40023
	cdc.cdc_cfg[4] = UART_DEFAULT_STOPB;
     f48:	1e0806b7          	lui	a3,0x1e080
     f4c:	c714                	sw	a3,8(a4)
	cdc.tx_wrap_pos = UART_TX_BUF_SIZE;
     f4e:	03572823          	sw	s5,48(a4)
	USBFS->UEP2_DMA = (uintptr_t)uart_tx_buffer;
     f52:	94d6                	add	s1,s1,s5
     f54:	80c98a13          	addi	s4,s3,-2036 # 2000080c <uart_tx_buffer>
     f58:	0144ac23          	sw	s4,24(s1) # 40023018 <_eusrstack+0x2001e018>
	RCC->APB2PCENR |= RCC_APB2Periph_AFIO | RCC_APB2Periph_GPIOC;
     f5c:	4f98                	lw	a4,24(a5)
	AFIO->CTLR = (AFIO->CTLR & ~(UDP_PUE_MASK | UDM_PUE_MASK )) | USB_PHY_V33 | UDP_PUE_1K5 | USB_IOEN;
     f5e:	400106b7          	lui	a3,0x40010

	UEP_DMA(2) = (uintptr_t)uart_tx_buffer;

	int last_delay = millis_cnt;
	funPinMode( PA9,     GPIO_CFGLR_OUT_10Mhz_PP ); // Set PIN_1 to output
	int state_led = 0;
     f62:	4d81                	li	s11,0
	RCC->APB2PCENR |= RCC_APB2Periph_AFIO | RCC_APB2Periph_GPIOC;
     f64:	01176713          	ori	a4,a4,17
     f68:	cf98                	sw	a4,24(a5)
	AFIO->CTLR = (AFIO->CTLR & ~(UDP_PUE_MASK | UDM_PUE_MASK )) | USB_PHY_V33 | UDP_PUE_1K5 | USB_IOEN;
     f6a:	4e98                	lw	a4,24(a3)
     f6c:	c0c40413          	addi	s0,s0,-1012
     f70:	80c98993          	addi	s3,s3,-2036
     f74:	f3077713          	andi	a4,a4,-208
     f78:	0cc76713          	ori	a4,a4,204
     f7c:	ce98                	sw	a4,24(a3)
	GPIOC->CFGXR = 	( GPIOC->CFGXR & ~( (0xf<<(4*0)) | (0xf<<(4*1)) ) )  |
     f7e:	400116b7          	lui	a3,0x40011
     f82:	4ed8                	lw	a4,28(a3)
				funDigitalWrite( PA9,     FUN_HIGH );
			}
			else
			{
				state_led = 0;
				funDigitalWrite( PA9,     FUN_LOW );
     f84:	02000bb7          	lui	s7,0x2000
				funDigitalWrite( PA9,     FUN_HIGH );
     f88:	20000c13          	li	s8,512
     f8c:	f0077713          	andi	a4,a4,-256
     f90:	08476713          	ori	a4,a4,132
     f94:	ced8                	sw	a4,28(a3)
	GPIOC->BSXR = 1<<1; // PC17 on.
     f96:	4709                	li	a4,2
     f98:	d298                	sw	a4,32(a3)
	RCC->AHBPCENR |= RCC_USBFS | RCC_AHBPeriph_DMA1;
     f9a:	4bd8                	lw	a4,20(a5)
     f9c:	6685                	lui	a3,0x1
     f9e:	0685                	addi	a3,a3,1 # 1001 <main+0x141>
     fa0:	8f55                	or	a4,a4,a3
     fa2:	cbd8                	sw	a4,20(a5)
	USBFS->BASE_CTRL = USBFS_UC_RESET_SIE | USBFS_UC_CLR_ALL;
     fa4:	4799                	li	a5,6
     fa6:	00f48023          	sb	a5,0(s1)
	USBFS->BASE_CTRL = 0x00;
     faa:	00048023          	sb	zero,0(s1)
	Delay_Us(10);
     fae:	b8eff0ef          	jal	33c <DelaySysTick.constprop.0>
	USBFS->INT_EN    = USBFS_UIE_SUSPEND | USBFS_UIE_TRANSFER | USBFS_UIE_BUS_RST;
     fb2:	479d                	li	a5,7
     fb4:	00f48123          	sb	a5,2(s1)
	USBFS->DEV_ADDR  = 0x00;
     fb8:	000481a3          	sb	zero,3(s1)
	USBFS->BASE_CTRL = USBFS_UC_INT_BUSY | USBFS_UC_DMA_EN | USBFS_UC_DEV_PU_EN;
     fbc:	02900793          	li	a5,41
     fc0:	00f48023          	sb	a5,0(s1)
	USBFS->INT_FG    = 0xff;
     fc4:	57fd                	li	a5,-1
     fc6:	00f48323          	sb	a5,6(s1)
	USBFS_InternalFinishSetup();
     fca:	acaff0ef          	jal	294 <USBFS_InternalFinishSetup>
	USBFS->UDEV_CTRL = USBFS_UD_PD_DIS | USBFS_UD_PORT_EN;
     fce:	f8100793          	li	a5,-127
     fd2:	00f480a3          	sb	a5,1(s1)
	printf("Hello after init\n\r");
     fd6:	6505                	lui	a0,0x1
     fd8:	6789                	lui	a5,0x2
     fda:	10fb2223          	sw	a5,260(s6)
     fde:	35850513          	addi	a0,a0,856 # 1358 <language+0x4>
     fe2:	3d5d                	jal	e98 <printf>
	UEP_DMA(2) = (uintptr_t)uart_tx_buffer;
     fe4:	400237b7          	lui	a5,0x40023
     fe8:	4147ac23          	sw	s4,1048(a5) # 40023418 <_eusrstack+0x2001e418>
	int last_delay = millis_cnt;
     fec:	c041a703          	lw	a4,-1020(gp) # 20000000 <millis_cnt>
     ff0:	c081a783          	lw	a5,-1016(gp) # 20000004 <millis_cnt+0x4>
     ff4:	40011a37          	lui	s4,0x40011
     ff8:	8cba                	mv	s9,a4
	funPinMode( PA9,     GPIO_CFGLR_OUT_10Mhz_PP ); // Set PIN_1 to output
     ffa:	40011737          	lui	a4,0x40011
     ffe:	80470713          	addi	a4,a4,-2044 # 40010804 <_eusrstack+0x2000b804>
    1002:	431c                	lw	a5,0(a4)
    1004:	800a0a13          	addi	s4,s4,-2048 # 40010800 <_eusrstack+0x2000b800>
				state_led = 1;
    1008:	4b05                	li	s6,1
	funPinMode( PA9,     GPIO_CFGLR_OUT_10Mhz_PP ); // Set PIN_1 to output
    100a:	f0f7f793          	andi	a5,a5,-241
    100e:	0107e793          	ori	a5,a5,16
    1012:	c31c                	sw	a5,0(a4)
		if((millis_cnt - last_delay) > 1000)
    1014:	c041a503          	lw	a0,-1020(gp) # 20000000 <millis_cnt>
    1018:	c081a583          	lw	a1,-1016(gp) # 20000004 <millis_cnt+0x4>
    101c:	41fcd793          	srai	a5,s9,0x1f
    1020:	41950733          	sub	a4,a0,s9
    1024:	00e53633          	sltu	a2,a0,a4
    1028:	40f587b3          	sub	a5,a1,a5
    102c:	00c79663          	bne	a5,a2,1038 <main+0x178>
    1030:	3e800793          	li	a5,1000
    1034:	02e7f063          	bgeu	a5,a4,1054 <main+0x194>
			last_delay = millis_cnt;
    1038:	c041a703          	lw	a4,-1020(gp) # 20000000 <millis_cnt>
    103c:	c081a783          	lw	a5,-1016(gp) # 20000004 <millis_cnt+0x4>
    1040:	8cba                	mv	s9,a4
			if (state_led == 0)
    1042:	220d9663          	bnez	s11,126e <main+0x3ae>
				funDigitalWrite( PA9,     FUN_HIGH );
    1046:	018a2823          	sw	s8,16(s4)
				state_led = 1;
    104a:	4d85                	li	s11,1
			}
			// printf("Before flash read\n\r");
			// flash_read_info();
			printf("Hello dssdfdsf fdfdsfsdf fds fds fsd fsd fs df ");
    104c:	6785                	lui	a5,0x1
    104e:	37078513          	addi	a0,a5,880 # 1370 <language+0x1c>
    1052:	3599                	jal	e98 <printf>
	if (ctx->txing) 
    1054:	505c                	lw	a5,36(s0)
    1056:	cba1                	beqz	a5,10a6 <main+0x1e6>
	NVIC->IRER[((uint32_t)(IRQn) >> 5)] = (1 << ((uint32_t)(IRQn) & 0x1F));
    1058:	e000e737          	lui	a4,0xe000e
    105c:	6609                	lui	a2,0x2
    105e:	18c72223          	sw	a2,388(a4) # e000e184 <_eusrstack+0xc0009184>
		ctx->tx_remain -= ctx->txing;
    1062:	5458                	lw	a4,44(s0)
    1064:	8f1d                	sub	a4,a4,a5
    1066:	d458                	sw	a4,44(s0)
		ctx->tx_pos += ctx->txing;
    1068:	5418                	lw	a4,40(s0)
    106a:	97ba                	add	a5,a5,a4
		if( ctx->tx_pos & 0x3 ) ctx->tx_pos = (ctx->tx_pos + 4) & ~0x3;
    106c:	0037f713          	andi	a4,a5,3
    1070:	c319                	beqz	a4,1076 <main+0x1b6>
    1072:	0791                	addi	a5,a5,4
    1074:	9bf1                	andi	a5,a5,-4
		ctx->tx_pos += ctx->txing;
    1076:	d41c                	sw	a5,40(s0)
		if ((ctx->tx_stop) && (!ctx->tx_remain)) {
    1078:	03444783          	lbu	a5,52(s0)
		ctx->txing = 0;
    107c:	02042223          	sw	zero,36(s0)
		if ((ctx->tx_stop) && (!ctx->tx_remain)) {
    1080:	cf91                	beqz	a5,109c <main+0x1dc>
    1082:	545c                	lw	a5,44(s0)
    1084:	ef81                	bnez	a5,109c <main+0x1dc>
	else UEP_CTRL_TX(endp) = ( UEP_CTRL_TX(endp) & ~USBFS_UEP_R_RES_MASK ) | USBFS_UEP_R_RES_ACK;
    1086:	400237b7          	lui	a5,0x40023
    108a:	42a7d703          	lhu	a4,1066(a5) # 4002342a <_eusrstack+0x2001e42a>
    108e:	6641                	lui	a2,0x10
    1090:	164d                	addi	a2,a2,-13 # fff3 <main.c.7dc03427+0xd728>
    1092:	8f71                	and	a4,a4,a2
    1094:	42e79523          	sh	a4,1066(a5)
			ctx->tx_stop = 0;
    1098:	02040a23          	sb	zero,52(s0)
	NVIC->IENR[((uint32_t)(IRQn) >> 5)] = (1 << ((uint32_t)(IRQn) & 0x1F));
    109c:	e000e7b7          	lui	a5,0xe000e
    10a0:	6709                	lui	a4,0x2
    10a2:	10e7a223          	sw	a4,260(a5) # e000e104 <_eusrstack+0xc0009104>
	if (ctx->txing == 0 && ctx->tx_remain) 
    10a6:	545c                	lw	a5,44(s0)
    10a8:	cbc9                	beqz	a5,113a <main+0x27a>
	NVIC->IRER[((uint32_t)(IRQn) >> 5)] = (1 << ((uint32_t)(IRQn) & 0x1F));
    10aa:	6709                	lui	a4,0x2
    10ac:	e000e7b7          	lui	a5,0xe000e
    10b0:	18e7a223          	sw	a4,388(a5) # e000e184 <_eusrstack+0xc0009184>
			if (ctx->tx_wrap_pos <= ctx->tx_pos) 
    10b4:	5810                	lw	a2,48(s0)
    10b6:	5418                	lw	a4,40(s0)
    10b8:	00c76963          	bltu	a4,a2,10ca <main+0x20a>
				ctx->tx_pos = 0; 
    10bc:	02042423          	sw	zero,40(s0)
				ctx->tx_wrap_pos = UART_TX_BUF_SIZE;
    10c0:	03542823          	sw	s5,48(s0)
    10c4:	40000613          	li	a2,1024
    10c8:	4701                	li	a4,0
			if(*(uart_tx_buffer + ctx->tx_pos) == 'r')
    10ca:	00e987b3          	add	a5,s3,a4
    10ce:	0007c583          	lbu	a1,0(a5)
    10d2:	07200793          	li	a5,114
    10d6:	04f59463          	bne	a1,a5,111e <main+0x25e>
    FLASH->KEYR = FLASH_KEY1;
    10da:	45670537          	lui	a0,0x45670
    10de:	400227b7          	lui	a5,0x40022
    10e2:	12350513          	addi	a0,a0,291 # 45670123 <_eusrstack+0x2566b123>
    FLASH->KEYR = FLASH_KEY2;
    10e6:	cdef95b7          	lui	a1,0xcdef9
    FLASH->KEYR = FLASH_KEY1;
    10ea:	c3c8                	sw	a0,4(a5)
    FLASH->KEYR = FLASH_KEY2;
    10ec:	9ab58593          	addi	a1,a1,-1621 # cdef89ab <_eusrstack+0xadef39ab>
    10f0:	c3cc                	sw	a1,4(a5)
    FLASH->BOOT_MODEKEYR = FLASH_KEY1;
    10f2:	d788                	sw	a0,40(a5)
    FLASH->BOOT_MODEKEYR = FLASH_KEY2;
    10f4:	d78c                	sw	a1,40(a5)
    FLASH->STATR &= ~(1<<14);
    10f6:	47cc                	lw	a1,12(a5)
    10f8:	7571                	lui	a0,0xffffc
    10fa:	157d                	addi	a0,a0,-1 # ffffbfff <_eusrstack+0xdfff6fff>
    10fc:	8de9                	and	a1,a1,a0
    10fe:	c7cc                	sw	a1,12(a5)
        FLASH->STATR |= (1<<14);
    1100:	47cc                	lw	a1,12(a5)
    1102:	6511                	lui	a0,0x4
    1104:	8dc9                	or	a1,a1,a0
    1106:	c7cc                	sw	a1,12(a5)
    FLASH->CTLR |= CR_LOCK_Set;
    1108:	4b8c                	lw	a1,16(a5)
    110a:	0805e593          	ori	a1,a1,128
    110e:	cb8c                	sw	a1,16(a5)
	NVIC->CFGR = NVIC_KEY3|(1<<7);
    1110:	beef07b7          	lui	a5,0xbeef0
    1114:	e000e5b7          	lui	a1,0xe000e
    1118:	08078793          	addi	a5,a5,128 # beef0080 <_eusrstack+0x9eeeb080>
    111c:	c5bc                	sw	a5,72(a1)
			uint32_t to_send = (ctx->tx_pos + ctx->tx_remain < ctx->tx_wrap_pos)?ctx->tx_remain:(ctx->tx_wrap_pos - ctx->tx_pos);
    111e:	545c                	lw	a5,44(s0)
    1120:	97ba                	add	a5,a5,a4
    1122:	40e60733          	sub	a4,a2,a4
    1126:	00c7f363          	bgeu	a5,a2,112c <main+0x26c>
    112a:	5458                	lw	a4,44(s0)
			if (to_send == 0) return;
    112c:	c719                	beqz	a4,113a <main+0x27a>
			ctx->txing = to_send;
    112e:	d058                	sw	a4,36(s0)
	NVIC->IENR[((uint32_t)(IRQn) >> 5)] = (1 << ((uint32_t)(IRQn) & 0x1F));
    1130:	e000e7b7          	lui	a5,0xe000e
    1134:	6709                	lui	a4,0x2
    1136:	10e7a223          	sw	a4,260(a5) # e000e104 <_eusrstack+0xc0009104>
	if (ctx->rx_remain) 
    113a:	4c1c                	lw	a5,24(s0)
    113c:	c7ed                	beqz	a5,1226 <main+0x366>
		if (ctx->rxing == 0) 
    113e:	01044783          	lbu	a5,16(s0)
    1142:	12079a63          	bnez	a5,1276 <main+0x3b6>
			if( ctx->rx_remain >= USBFS_PACKET_SIZE ) packlen = USBFS_PACKET_SIZE;
    1146:	4c10                	lw	a2,24(s0)
    1148:	03f00713          	li	a4,63
    114c:	04000793          	li	a5,64
    1150:	00c76863          	bltu	a4,a2,1160 <main+0x2a0>
			else if (ctx->rx_timeout >= UART_RX_TIMEOUT) packlen = ctx->rx_remain;
    1154:	5010                	lw	a2,32(s0)
    1156:	4709                	li	a4,2
	uint32_t packlen = 0;
    1158:	4781                	li	a5,0
			else if (ctx->rx_timeout >= UART_RX_TIMEOUT) packlen = ctx->rx_remain;
    115a:	00c77363          	bgeu	a4,a2,1160 <main+0x2a0>
    115e:	4c1c                	lw	a5,24(s0)
			if (packlen > (UART_RX_BUF_SIZE - ctx->rx_pos)) packlen = (UART_RX_BUF_SIZE - ctx->rx_pos);
    1160:	484c                	lw	a1,20(s0)
    1162:	6485                	lui	s1,0x1
    1164:	80048493          	addi	s1,s1,-2048 # 800 <USBFS_IRQHandler+0x2c8>
    1168:	8c8d                	sub	s1,s1,a1
    116a:	0097f363          	bgeu	a5,s1,1170 <main+0x2b0>
    116e:	84be                	mv	s1,a5
			if (packlen) 
    1170:	c8dd                	beqz	s1,1226 <main+0x366>
	NVIC->IRER[((uint32_t)(IRQn) >> 5)] = (1 << ((uint32_t)(IRQn) & 0x1F));
    1172:	e000e7b7          	lui	a5,0xe000e
    1176:	6709                	lui	a4,0x2
	if( USBFSCTX.USBFS_errata_dont_send_endpoint_in_window || USBFSCTX.USBFS_Endp_Busy[ endp ] ) return -1;
    1178:	20001d37          	lui	s10,0x20001
    117c:	18e7a223          	sw	a4,388(a5) # e000e184 <_eusrstack+0xc0009184>
    1180:	c44d0d13          	addi	s10,s10,-956 # 20000c44 <USBFSCTX>
    1184:	128d4783          	lbu	a5,296(s10)
				ctx->usb_timeout = 0;
    1188:	00042623          	sw	zero,12(s0)
    118c:	ebc1                	bnez	a5,121c <main+0x35c>
    118e:	127d4783          	lbu	a5,295(s10)
    1192:	e7c9                	bnez	a5,121c <main+0x35c>
	if( USBFSCTX.USBFS_SetupReqLen > 0 ) return USBFSCTX.USBFS_SetupReqLen;
    1194:	002d5783          	lhu	a5,2(s10)
    1198:	e3d1                	bnez	a5,121c <main+0x35c>
	if( (USBFS->INT_ST & 0x80) ) return -3;
    119a:	400237b7          	lui	a5,0x40023
    119e:	40078793          	addi	a5,a5,1024 # 40023400 <_eusrstack+0x2001e400>
    11a2:	0077c783          	lbu	a5,7(a5)
    11a6:	07e2                	slli	a5,a5,0x18
    11a8:	87e1                	srai	a5,a5,0x18
    11aa:	0607c963          	bltz	a5,121c <main+0x35c>
			UEP_DMA( endp ) = (uintptr_t)USBFSCTX.ENDPOINTS[endp];
    11ae:	20001537          	lui	a0,0x20001
    11b2:	d1450713          	addi	a4,a0,-748 # 20000d14 <USBFSCTX+0xd0>
    11b6:	400237b7          	lui	a5,0x40023
    11ba:	40e7ae23          	sw	a4,1052(a5) # 4002341c <_eusrstack+0x2001e41c>
			copyBuffer( USBFSCTX.ENDPOINTS[endp], data, len );
    11be:	200007b7          	lui	a5,0x20000
    11c2:	00c78793          	addi	a5,a5,12 # 2000000c <uart_rx_buffer>
    11c6:	8626                	mv	a2,s1
    11c8:	95be                	add	a1,a1,a5
    11ca:	d1450513          	addi	a0,a0,-748
    11ce:	3ecd                	jal	dc0 <memcpy>
	UEP_CTRL_LEN( endp ) = len;
    11d0:	01049793          	slli	a5,s1,0x10
    11d4:	40023737          	lui	a4,0x40023
    11d8:	83c1                	srli	a5,a5,0x10
    11da:	42f71623          	sh	a5,1068(a4) # 4002342c <_eusrstack+0x2001e42c>
	UEP_CTRL_TX( endp ) = ( UEP_CTRL_TX( endp ) & ~USBFS_UEP_T_RES_MASK ) | USBFS_UEP_T_RES_ACK;
    11de:	87ba                	mv	a5,a4
    11e0:	42e75703          	lhu	a4,1070(a4)
    11e4:	6641                	lui	a2,0x10
    11e6:	1671                	addi	a2,a2,-4 # fffc <main.c.7dc03427+0xd731>
    11e8:	8f71                	and	a4,a4,a2
    11ea:	42e79723          	sh	a4,1070(a5)
	USBFSCTX.USBFS_Endp_Busy[ endp ] = 1;
    11ee:	136d03a3          	sb	s6,295(s10)
					ctx->rxing = packlen;
    11f2:	0ff4f793          	zext.b	a5,s1
    11f6:	00f40823          	sb	a5,16(s0)
					ctx->rx_remain -= packlen;
    11fa:	4c1c                	lw	a5,24(s0)
					if (ctx->rx_pos >= UART_RX_BUF_SIZE) ctx->rx_pos = 0;
    11fc:	7ff00713          	li	a4,2047
					ctx->rx_remain -= packlen;
    1200:	8f85                	sub	a5,a5,s1
    1202:	cc1c                	sw	a5,24(s0)
					ctx->rx_pos += packlen;
    1204:	485c                	lw	a5,20(s0)
    1206:	97a6                	add	a5,a5,s1
					if (ctx->rx_pos >= UART_RX_BUF_SIZE) ctx->rx_pos = 0;
    1208:	00f77363          	bgeu	a4,a5,120e <main+0x34e>
    120c:	4781                	li	a5,0
    120e:	c85c                	sw	a5,20(s0)
					if (packlen == USBFS_PACKET_SIZE) ctx->zero_packet_pending = 1;
    1210:	04000793          	li	a5,64
    1214:	00f49463          	bne	s1,a5,121c <main+0x35c>
    1218:	01640e23          	sb	s6,28(s0)
	NVIC->IENR[((uint32_t)(IRQn) >> 5)] = (1 << ((uint32_t)(IRQn) & 0x1F));
    121c:	e000e7b7          	lui	a5,0xe000e
    1220:	6709                	lui	a4,0x2
    1222:	10e7a223          	sw	a4,260(a5) # e000e104 <_eusrstack+0xc0009104>
	if (ctx->zero_packet_pending && ctx->rxing == 0 && ctx->usb_timeout >= UART_ZERO_TIMEOUT) 
    1226:	01c44783          	lbu	a5,28(s0)
    122a:	de0785e3          	beqz	a5,1014 <main+0x154>
    122e:	01044783          	lbu	a5,16(s0)
    1232:	de0791e3          	bnez	a5,1014 <main+0x154>
    1236:	4458                	lw	a4,12(s0)
    1238:	03b00793          	li	a5,59
    123c:	dce7fce3          	bgeu	a5,a4,1014 <main+0x154>
	NVIC->IRER[((uint32_t)(IRQn) >> 5)] = (1 << ((uint32_t)(IRQn) & 0x1F));
    1240:	e000e5b7          	lui	a1,0xe000e
    1244:	6509                	lui	a0,0x2
    1246:	18a5a223          	sw	a0,388(a1) # e000e184 <_eusrstack+0xc0009184>
		ctx->rxing = 1;
    124a:	01640823          	sb	s6,16(s0)
	if( tx ) UEP_CTRL_TX( endp ) = ( UEP_CTRL_TX( endp ) & ~USBFS_UEP_T_RES_MASK ) | USBFS_UEP_T_RES_ACK;
    124e:	400237b7          	lui	a5,0x40023
    1252:	42e7d703          	lhu	a4,1070(a5) # 4002342e <_eusrstack+0x2001e42e>
    1256:	6641                	lui	a2,0x10
    1258:	1671                	addi	a2,a2,-4 # fffc <main.c.7dc03427+0xd731>
		ctx->usb_timeout = 0;
    125a:	00042623          	sw	zero,12(s0)
    125e:	8f71                	and	a4,a4,a2
    1260:	42e79723          	sh	a4,1070(a5)
		ctx->zero_packet_pending = 0;
    1264:	00040e23          	sb	zero,28(s0)
	NVIC->IENR[((uint32_t)(IRQn) >> 5)] = (1 << ((uint32_t)(IRQn) & 0x1F));
    1268:	10a5a223          	sw	a0,260(a1)
}
    126c:	b365                	j	1014 <main+0x154>
				funDigitalWrite( PA9,     FUN_LOW );
    126e:	017a2823          	sw	s7,16(s4)
				state_led = 0;
    1272:	4d81                	li	s11,0
    1274:	bbe1                	j	104c <main+0x18c>
			if (ctx->usb_timeout >= UART_USB_TIMEOUT) 
    1276:	4458                	lw	a4,12(s0)
    1278:	25700793          	li	a5,599
    127c:	fae7f5e3          	bgeu	a5,a4,1226 <main+0x366>
				USBFSCTX.USBFS_Endp_Busy[3] = 0;
    1280:	200017b7          	lui	a5,0x20001
				ctx->rxing = 0;
    1284:	00040823          	sb	zero,16(s0)
				USBFSCTX.USBFS_Endp_Busy[3] = 0;
    1288:	c4478793          	addi	a5,a5,-956 # 20000c44 <USBFSCTX>
    128c:	120783a3          	sb	zero,295(a5)
    1290:	bf59                	j	1226 <main+0x366>

00001292 <SysTick_Handler>:
	NVIC_EnableIRQ(SysTick_IRQn);
}

void SysTick_Handler(void) __attribute__((interrupt));
void SysTick_Handler(void)
{
    1292:	1101                	addi	sp,sp,-32
    1294:	c63a                	sw	a4,12(sp)
	SysTick->CMP += DELAY_MS_TIME;
    1296:	e000f737          	lui	a4,0xe000f
{
    129a:	c242                	sw	a6,4(sp)
	SysTick->CMP += DELAY_MS_TIME;
    129c:	01072803          	lw	a6,16(a4) # e000f010 <_eusrstack+0xc000a010>
{
    12a0:	c43e                	sw	a5,8(sp)
	SysTick->CMP += DELAY_MS_TIME;
    12a2:	67b1                	lui	a5,0xc
{
    12a4:	c046                	sw	a7,0(sp)
	SysTick->CMP += DELAY_MS_TIME;
    12a6:	b8078793          	addi	a5,a5,-1152 # bb80 <main.c.7dc03427+0x92b5>
    12aa:	01472883          	lw	a7,20(a4)
    12ae:	97c2                	add	a5,a5,a6
{
    12b0:	ce2a                	sw	a0,28(sp)
    12b2:	cc2e                	sw	a1,24(sp)
    12b4:	ca32                	sw	a2,20(sp)
    12b6:	c836                	sw	a3,16(sp)
	SysTick->CMP += DELAY_MS_TIME;
    12b8:	0107b533          	sltu	a0,a5,a6
    12bc:	cb1c                	sw	a5,16(a4)
    12be:	011506b3          	add	a3,a0,a7
    12c2:	cb54                	sw	a3,20(a4)
	SysTick->SR = 0;

	cdc.rx_timeout++;
    12c4:	200017b7          	lui	a5,0x20001
	SysTick->SR = 0;
    12c8:	00072223          	sw	zero,4(a4)
	cdc.rx_timeout++;
    12cc:	c0c78793          	addi	a5,a5,-1012 # 20000c0c <cdc>
    12d0:	5398                	lw	a4,32(a5)
	cdc.usb_timeout++;
	millis_cnt++;
    12d2:	c041a803          	lw	a6,-1020(gp) # 20000000 <millis_cnt>
	cdc.rx_timeout++;
    12d6:	0705                	addi	a4,a4,1
    12d8:	d398                	sw	a4,32(a5)
	cdc.usb_timeout++;
    12da:	47d8                	lw	a4,12(a5)
	millis_cnt++;
    12dc:	c081a883          	lw	a7,-1016(gp) # 20000004 <millis_cnt+0x4>
    12e0:	00180513          	addi	a0,a6,1
    12e4:	01053633          	sltu	a2,a0,a6
	cdc.usb_timeout++;
    12e8:	0705                	addi	a4,a4,1
	millis_cnt++;
    12ea:	c0a1a223          	sw	a0,-1020(gp) # 20000000 <millis_cnt>
	cdc.usb_timeout++;
    12ee:	c7d8                	sw	a4,12(a5)
	millis_cnt++;
    12f0:	011607b3          	add	a5,a2,a7
    12f4:	c0f1a423          	sw	a5,-1016(gp) # 20000004 <millis_cnt+0x4>
    12f8:	4572                	lw	a0,28(sp)
    12fa:	45e2                	lw	a1,24(sp)
    12fc:	4652                	lw	a2,20(sp)
    12fe:	46c2                	lw	a3,16(sp)
    1300:	4732                	lw	a4,12(sp)
    1302:	47a2                	lw	a5,8(sp)
    1304:	4812                	lw	a6,4(sp)
    1306:	4882                	lw	a7,0(sp)
    1308:	6105                	addi	sp,sp,32
    130a:	30200073          	mret
	...

00001310 <string3>:
    1310:	00300308 00370030 00000000              ..0.0.7.....

0000131c <string2>:
    131c:	00550320 00420053 0073002d 00720065      .U.S.B.-.s.e.r.
    132c:	00610069 0020006c 0069006c 006b006e     i.a.l. .l.i.n.k.
    133c:	00000000                                ....

00001340 <string1>:
    1340:	00630310 00330068 00660032 006e0075     ..c.h.3.2.f.u.n.
    1350:	00000000                                ....

00001354 <language>:
    1354:	04090304 6c6c6548 6661206f 20726574     ....Hello after 
    1364:	74696e69 00000d0a 00000000 6c6c6548     init........Hell
    1374:	7364206f 64666473 66206673 73646664     o dssdfdsf fdfds
    1384:	66647366 73646620 73646620 64736620     fsdf fds fds fsd
    1394:	64736620 20736620 00206664 4253555b      fsd fs df .[USB
    13a4:	5254205d 46534e41 202c5245 656b6f74     ] TRANSFER, toke
    13b4:	203d206e 78323025 7065202c 25203d20     n = %02x, ep = %
    13c4:	62202c64 7165526d 74736575 65707954     d, bmRequestType
    13d4:	25203d20 2c783230 65526220 73657571      = %02x, bReques
    13e4:	203d2074 78323025 0000000a 4253555b     t = %02x....[USB
    13f4:	4553205d 3a505554 32302520 30252078     ] SETUP: %02x %0
    1404:	25207832 20643230 78323025 34302520     2x %02d %02x %04
    1414:	00000a78 4253555b 4552205d 00544553     x...[USB] RESET.
    1424:	4253555b 5553205d 4e455053 00000044     [USB] SUSPEND...
    1434:	4253555b 6e69205d 73676674 203d2074     [USB] intfgst = 
    1444:	78343025 0000000a 00000ace 00000a32     %04x........2...
    1454:	000008fe 00000a76 000008fe 000009d2     ....v...........
    1464:	000009ae 000008fe 00000a0c 00000a24     ............$...
    1474:	00000ac2 000009d8                       ........

0000147c <config_descriptor>:
    147c:	00430209 80000102 00040932 02020100     ..C.....2.......
    148c:	24050001 05011000 01000124 02022404     ...$....$....$..
    149c:	00062405 81050701 01004003 00010409     .$.......@......
    14ac:	00000a02 02050700 00004002 02830507     .........@......
    14bc:	00000040                                @...

000014c0 <device_descriptor>:
    14c0:	01100112 40000002 d0351209 02010007     .......@..5.....
    14d0:	00000103                                ....

000014d4 <descriptor_list>:
    14d4:	00000100 000014c0 00000012 00000200     ................
    14e4:	0000147c 00000043 00000300 00001354     |...C.......T...
    14f4:	00000004 04090301 00001340 00000010     ........@.......
    1504:	04090302 0000131c 00000020 04090303     ........ .......
    1514:	00001310 00000008                       ........
