
main.elf:     file format elf32-littleriscv


Disassembly of section .init:

00000000 <InterruptVector>:
	void InterruptVector()         __attribute__((naked)) __attribute((section(".init"))) __attribute((weak,alias("InterruptVectorDefault"))) __attribute((naked));
	void InterruptVectorDefault()  __attribute__((naked)) __attribute((section(".init"))) __attribute((naked));
	void InterruptVectorDefault( void )
	{
		#if !defined(FUNCONF_TINYVECTOR) || !FUNCONF_TINYVECTOR
			asm volatile( DEFAULT_INTERRUPT_VECTOR_CONTENTS );
   0:	3160006f          	j	316 <handle_reset>
   4:	00000000          	.word	0x00000000
   8:	00000392          	.word	0x00000392
   c:	00000390          	.word	0x00000390
  10:	00000000          	.word	0x00000000
  14:	00000390          	.word	0x00000390
	...
  20:	00000390          	.word	0x00000390
  24:	00000390          	.word	0x00000390
	...
  30:	000012e0          	.word	0x000012e0
  34:	00000000          	.word	0x00000000
  38:	00000390          	.word	0x00000390
  3c:	00000000          	.word	0x00000000
  40:	00000390          	.word	0x00000390
  44:	00000390          	.word	0x00000390
  48:	00000390          	.word	0x00000390
  4c:	00000390          	.word	0x00000390
  50:	00000390          	.word	0x00000390
  54:	00000390          	.word	0x00000390
  58:	00000390          	.word	0x00000390
  5c:	00000390          	.word	0x00000390
  60:	00000390          	.word	0x00000390
  64:	00000390          	.word	0x00000390
  68:	00000390          	.word	0x00000390
  6c:	00000390          	.word	0x00000390
  70:	00000390          	.word	0x00000390
  74:	00000390          	.word	0x00000390
  78:	00000390          	.word	0x00000390
  7c:	00000390          	.word	0x00000390
  80:	00000390          	.word	0x00000390
  84:	00000390          	.word	0x00000390
  88:	00000390          	.word	0x00000390
  8c:	00000390          	.word	0x00000390
  90:	00000390          	.word	0x00000390
  94:	00000390          	.word	0x00000390
  98:	00000390          	.word	0x00000390
  9c:	00000390          	.word	0x00000390
  a0:	00000390          	.word	0x00000390
  a4:	00000390          	.word	0x00000390
  a8:	00000390          	.word	0x00000390
  ac:	00000390          	.word	0x00000390
  b0:	00000390          	.word	0x00000390
  b4:	000003a0          	.word	0x000003a0
  b8:	00000390          	.word	0x00000390
  bc:	00000390          	.word	0x00000390
  c0:	00000390          	.word	0x00000390
  c4:	00000390          	.word	0x00000390
  c8:	00000390          	.word	0x00000390
  cc:	00000390          	.word	0x00000390
  d0:	00000390          	.word	0x00000390
  d4:	00000390          	.word	0x00000390
  d8:	00000390          	.word	0x00000390
  dc:	0000                	.insn	2, 0x
	...

Disassembly of section .text:

000000e0 <mini_pad>:
	if(pad_to == 0) pad_to = len;
      e0:	c699                	beqz	a3,ee <mini_pad+0xe>
	int overflow = 0;
      e2:	4801                	li	a6,0
	if(len > pad_to) {
      e4:	00b6d763          	bge	a3,a1,f2 <mini_pad+0x12>
		len = pad_to;
      e8:	85b6                	mv	a1,a3
		overflow = 1;
      ea:	4805                	li	a6,1
      ec:	a019                	j	f2 <mini_pad+0x12>
	int overflow = 0;
      ee:	4801                	li	a6,0
	if(pad_to == 0) pad_to = len;
      f0:	86ae                	mv	a3,a1
	for(i = pad_to - len; i > 0; i --) {
      f2:	8e8d                	sub	a3,a3,a1
	char * pbuffer = buffer;
      f4:	87ba                	mv	a5,a4
      f6:	00e68333          	add	t1,a3,a4
	for(i = pad_to - len; i > 0; i --) {
      fa:	40f308b3          	sub	a7,t1,a5
      fe:	05104a63          	bgtz	a7,152 <mini_pad+0x72>
     102:	fff6c793          	not	a5,a3
     106:	87fd                	srai	a5,a5,0x1f
     108:	8efd                	and	a3,a3,a5
     10a:	96ba                	add	a3,a3,a4
     10c:	4781                	li	a5,0
	for(i = len; i > 0; i --) {
     10e:	40f58633          	sub	a2,a1,a5
     112:	00f688b3          	add	a7,a3,a5
     116:	04c04263          	bgtz	a2,15a <mini_pad+0x7a>
     11a:	fff5c793          	not	a5,a1
     11e:	87fd                	srai	a5,a5,0x1f
     120:	8dfd                	and	a1,a1,a5
     122:	95b6                	add	a1,a1,a3
	len = pbuffer - buffer;
     124:	40e58533          	sub	a0,a1,a4
	if(overflow) {
     128:	02080463          	beqz	a6,150 <mini_pad+0x70>
		for (i = 0; i < 3 && pbuffer > buffer; i ++) {
     12c:	02b77263          	bgeu	a4,a1,150 <mini_pad+0x70>
			*(pbuffer-- - 1) = '*';
     130:	02a00793          	li	a5,42
     134:	fef58fa3          	sb	a5,-1(a1)
     138:	fff58693          	addi	a3,a1,-1
		for (i = 0; i < 3 && pbuffer > buffer; i ++) {
     13c:	00d77a63          	bgeu	a4,a3,150 <mini_pad+0x70>
			*(pbuffer-- - 1) = '*';
     140:	fef58f23          	sb	a5,-2(a1)
     144:	ffe58693          	addi	a3,a1,-2
		for (i = 0; i < 3 && pbuffer > buffer; i ++) {
     148:	00d77463          	bgeu	a4,a3,150 <mini_pad+0x70>
			*(pbuffer-- - 1) = '*';
     14c:	fef58ea3          	sb	a5,-3(a1)
}
     150:	8082                	ret
		*(pbuffer++) = pad_char;
     152:	0785                	addi	a5,a5,1
     154:	fec78fa3          	sb	a2,-1(a5)
	for(i = pad_to - len; i > 0; i --) {
     158:	b74d                	j	fa <mini_pad+0x1a>
		*(pbuffer++) = *(ptr++);
     15a:	00f50633          	add	a2,a0,a5
     15e:	00064603          	lbu	a2,0(a2)
     162:	0785                	addi	a5,a5,1
     164:	00c88023          	sb	a2,0(a7)
	for(i = len; i > 0; i --) {
     168:	b75d                	j	10e <mini_pad+0x2e>

0000016a <_puts>:
{
     16a:	86aa                	mv	a3,a0
     16c:	852e                	mv	a0,a1
	if(!buf) return len;
     16e:	ce01                	beqz	a2,186 <_puts+0x1c>
	char * p0 = b->buffer;
     170:	00062883          	lw	a7,0(a2)
	for (i = 0; i < len; i++) {
     174:	4701                	li	a4,0
		if(b->pbuffer == b->buffer + b->buffer_len - 1) {
     176:	425c                	lw	a5,4(a2)
	for (i = 0; i < len; i++) {
     178:	00a74863          	blt	a4,a0,188 <_puts+0x1e>
	*(b->pbuffer) = 0;
     17c:	00078023          	sb	zero,0(a5)
	return b->pbuffer - p0;
     180:	4248                	lw	a0,4(a2)
     182:	41150533          	sub	a0,a0,a7
}
     186:	8082                	ret
		if(b->pbuffer == b->buffer + b->buffer_len - 1) {
     188:	00862803          	lw	a6,8(a2)
     18c:	420c                	lw	a1,0(a2)
     18e:	187d                	addi	a6,a6,-1
     190:	95c2                	add	a1,a1,a6
     192:	feb785e3          	beq	a5,a1,17c <_puts+0x12>
		*(b->pbuffer ++) = s[i];
     196:	00178593          	addi	a1,a5,1
     19a:	c24c                	sw	a1,4(a2)
     19c:	00e685b3          	add	a1,a3,a4
     1a0:	0005c583          	lbu	a1,0(a1)
	for (i = 0; i < len; i++) {
     1a4:	0705                	addi	a4,a4,1
		*(b->pbuffer ++) = s[i];
     1a6:	00b78023          	sb	a1,0(a5)
	for (i = 0; i < len; i++) {
     1aa:	b7f1                	j	176 <_puts+0xc>

000001ac <DelaySysTick>:
{
#if defined(CH32V003) || defined(CH32V00x)
	uint32_t targend = SysTick->CNT + n;
	while( ((int32_t)( SysTick->CNT - targend )) < 0 );
#elif defined(CH32V20x) || defined(CH32V30x) || defined(CH32X03x) || defined(CH32L103) || defined(CH582_CH583) || defined(CH591_CH592)
	uint64_t targend = SysTick->CNT + n;
     1ac:	e000f837          	lui	a6,0xe000f
     1b0:	00882703          	lw	a4,8(a6) # e000f008 <_eusrstack+0xc000a008>
     1b4:	00c82783          	lw	a5,12(a6)
     1b8:	00e505b3          	add	a1,a0,a4
     1bc:	00a5b533          	sltu	a0,a1,a0
     1c0:	953e                	add	a0,a0,a5
	while( ((int64_t)( SysTick->CNT - targend )) < 0 );
     1c2:	00882603          	lw	a2,8(a6)
     1c6:	00c82683          	lw	a3,12(a6)
     1ca:	40b60733          	sub	a4,a2,a1
     1ce:	00e63733          	sltu	a4,a2,a4
     1d2:	40a687b3          	sub	a5,a3,a0
     1d6:	8f99                	sub	a5,a5,a4
     1d8:	fe07c5e3          	bltz	a5,1c2 <DelaySysTick+0x16>
	uint64_t targend = SysTick->CNT - n;
	while( ((int64_t)( SysTick->CNT - targend )) > 0 );
#else
	#error DelaySysTick not defined.
#endif
}
     1dc:	8082                	ret

000001de <mini_itoa.part.0>:
	int	negative = 0;
     1de:	4881                	li	a7,0
	if (value < 0 && !unsig) {
     1e0:	00055663          	bgez	a0,1ec <mini_itoa.part.0+0xe>
     1e4:	e681                	bnez	a3,1ec <mini_itoa.part.0+0xe>
		value = -value;
     1e6:	40a00533          	neg	a0,a0
		negative = 1;
     1ea:	4885                	li	a7,1
     1ec:	8a05                	andi	a2,a2,1
     1ee:	06100793          	li	a5,97
     1f2:	c219                	beqz	a2,1f8 <mini_itoa.part.0+0x1a>
     1f4:	04100793          	li	a5,65
	int	negative = 0;
     1f8:	883a                	mv	a6,a4
		*(pbuffer++) = (digit < 10 ? '0' + digit : (uppercase ? 'A' : 'a') + digit - 10);
     1fa:	4e25                	li	t3,9
     1fc:	ff678613          	addi	a2,a5,-10
		int digit = value % radix;
     200:	02b577b3          	remu	a5,a0,a1
     204:	832a                	mv	t1,a0
		*(pbuffer++) = (digit < 10 ? '0' + digit : (uppercase ? 'A' : 'a') + digit - 10);
     206:	0ff7f693          	zext.b	a3,a5
     20a:	04fe6463          	bltu	t3,a5,252 <mini_itoa.part.0+0x74>
     20e:	03068693          	addi	a3,a3,48
     212:	0ff6f693          	zext.b	a3,a3
     216:	00d80023          	sb	a3,0(a6)
     21a:	00180793          	addi	a5,a6,1
		value /= radix;
     21e:	02b55533          	divu	a0,a0,a1
	} while (value > 0);
     222:	02b37663          	bgeu	t1,a1,24e <mini_itoa.part.0+0x70>
	if (negative)
     226:	00088863          	beqz	a7,236 <mini_itoa.part.0+0x58>
		*(pbuffer++) = '-';
     22a:	02d00693          	li	a3,45
     22e:	00d78023          	sb	a3,0(a5)
     232:	00280793          	addi	a5,a6,2
	len = (pbuffer - buffer);
     236:	40e78533          	sub	a0,a5,a4
	for (i = 0; i < len / 2; i++) {
     23a:	4609                	li	a2,2
	*(pbuffer) = '\0';
     23c:	00078023          	sb	zero,0(a5)
	for (i = 0; i < len / 2; i++) {
     240:	4681                	li	a3,0
     242:	02c54633          	div	a2,a0,a2
     246:	17fd                	addi	a5,a5,-1
     248:	00c6c763          	blt	a3,a2,256 <mini_itoa.part.0+0x78>
}
     24c:	8082                	ret
		*(pbuffer++) = (digit < 10 ? '0' + digit : (uppercase ? 'A' : 'a') + digit - 10);
     24e:	883e                	mv	a6,a5
     250:	bf45                	j	200 <mini_itoa.part.0+0x22>
     252:	96b2                	add	a3,a3,a2
     254:	bf7d                	j	212 <mini_itoa.part.0+0x34>
		char j = buffer[i];
     256:	00d705b3          	add	a1,a4,a3
		buffer[i] = buffer[len-i-1];
     25a:	0007c883          	lbu	a7,0(a5)
		char j = buffer[i];
     25e:	0005c803          	lbu	a6,0(a1)
	for (i = 0; i < len / 2; i++) {
     262:	0685                	addi	a3,a3,1
		buffer[i] = buffer[len-i-1];
     264:	01158023          	sb	a7,0(a1)
		buffer[len-i-1] = j;
     268:	01078023          	sb	a6,0(a5)
	for (i = 0; i < len / 2; i++) {
     26c:	bfe9                	j	246 <mini_itoa.part.0+0x68>

0000026e <USBFS_InternalFinishSetup>:

void USBFS_InternalFinishSetup()
{

#if FUSB_EP1_MODE
	USBFSCTX.endpoint_mode[1] = FUSB_EP1_MODE;
     26e:	200017b7          	lui	a5,0x20001
     272:	c4078613          	addi	a2,a5,-960 # 20000c40 <USBFSCTX>
     276:	10060693          	addi	a3,a2,256
     27a:	4585                	li	a1,1
     27c:	cacc                	sw	a1,20(a3)
#if FUSB_EP1_MODE > 0 
	USBFS->UEP4_1_MOD = USBFS_UEP1_TX_EN;
     27e:	40023737          	lui	a4,0x40023
     282:	04000513          	li	a0,64
     286:	40a70623          	sb	a0,1036(a4) # 4002340c <_eusrstack+0x2001e40c>
	USBFS->UEP4_1_MOD |= USBFS_UEP4_RX_EN;
#endif
#endif

#if FUSB_EP2_MODE
	USBFSCTX.endpoint_mode[2] = FUSB_EP2_MODE;
     28a:	557d                	li	a0,-1
     28c:	ce88                	sw	a0,24(a3)
#if FUSB_EP2_MODE > 0 
	USBFS->UEP2_3_MOD = USBFS_UEP2_TX_EN;
#else
	USBFS->UEP2_3_MOD = USBFS_UEP2_RX_EN;
     28e:	4521                	li	a0,8
     290:	40a706a3          	sb	a0,1037(a4)
#endif
#endif
#if FUSB_EP3_MODE
	USBFSCTX.endpoint_mode[3] = FUSB_EP3_MODE;
     294:	cecc                	sw	a1,28(a3)
#if FUSB_EP3_MODE > 0 
	USBFS->UEP2_3_MOD |= USBFS_UEP3_TX_EN;
     296:	40d74683          	lbu	a3,1037(a4)
     29a:	c4078793          	addi	a5,a5,-960
     29e:	0406e693          	ori	a3,a3,64
     2a2:	40d706a3          	sb	a3,1037(a4)
#error You must have at least EP0!
#endif

	for( int i = 0; i < FUSB_CONFIG_EPS; i++ )
	{
		UEP_DMA(i) = (uintptr_t)USBFSCTX.ENDPOINTS[i];
     2a6:	20001737          	lui	a4,0x20001
     2aa:	400236b7          	lui	a3,0x40023
     2ae:	c5070713          	addi	a4,a4,-944 # 20000c50 <USBFSCTX+0x10>
     2b2:	40e6a823          	sw	a4,1040(a3) # 40023410 <_eusrstack+0x2001e410>
     2b6:	20001737          	lui	a4,0x20001
     2ba:	c9070713          	addi	a4,a4,-880 # 20000c90 <USBFSCTX+0x50>
     2be:	40e6aa23          	sw	a4,1044(a3)
     2c2:	20001737          	lui	a4,0x20001
     2c6:	cd070713          	addi	a4,a4,-816 # 20000cd0 <USBFSCTX+0x90>
     2ca:	40e6ac23          	sw	a4,1048(a3)
     2ce:	20001737          	lui	a4,0x20001
     2d2:	d1070713          	addi	a4,a4,-752 # 20000d10 <USBFSCTX+0xd0>
     2d6:	40e6ae23          	sw	a4,1052(a3)
	}
	
#if defined (CH5xx) || defined (CH32X03x) || defined (CH32V10x)
	UEP_CTRL_TX(0) = USBFS_UEP_T_RES_NAK | USBFS_UEP_R_RES_ACK | CHECK_USBFS_UEP_T_AUTO_TOG;
     2da:	8736                	mv	a4,a3
     2dc:	46c9                	li	a3,18
     2de:	42d71123          	sh	a3,1058(a4)

	for( int i = 1; i < FUSB_CONFIG_EPS; i++ )
	{
		if( USBFSCTX.endpoint_mode[i] > 0 )
		{
			UEP_CTRL_TX(i) = USBFS_UEP_T_RES_NAK;
     2e2:	4689                	li	a3,2
     2e4:	42d71323          	sh	a3,1062(a4)
			UEP_CTRL_TX(i) = USBFS_UEP_R_RES_ACK;
#else
			UEP_CTRL_RX(i) = USBFS_UEP_R_RES_ACK;
#endif
		}
		USBFSCTX.USBFS_Endp_Busy[i] = 0;
     2e8:	120602a3          	sb	zero,293(a2)
			UEP_CTRL_TX(i) = USBFS_UEP_R_RES_ACK;
     2ec:	42071523          	sh	zero,1066(a4)
		if( USBFSCTX.endpoint_mode[i] > 0 )
     2f0:	11c7a703          	lw	a4,284(a5)
		USBFSCTX.USBFS_Endp_Busy[i] = 0;
     2f4:	12078323          	sb	zero,294(a5)
		if( USBFSCTX.endpoint_mode[i] > 0 )
     2f8:	00e05963          	blez	a4,30a <USBFS_InternalFinishSetup+0x9c>
			UEP_CTRL_TX(i) = USBFS_UEP_T_RES_NAK;
     2fc:	40023737          	lui	a4,0x40023
     300:	42d71723          	sh	a3,1070(a4) # 4002342e <_eusrstack+0x2001e42e>
		USBFSCTX.USBFS_Endp_Busy[i] = 0;
     304:	120783a3          	sb	zero,295(a5)
	}
}
     308:	8082                	ret
		else if( USBFSCTX.endpoint_mode[i] < 0 )
     30a:	df6d                	beqz	a4,304 <USBFS_InternalFinishSetup+0x96>
			UEP_CTRL_TX(i) = USBFS_UEP_R_RES_ACK;
     30c:	40023737          	lui	a4,0x40023
     310:	42071723          	sh	zero,1070(a4) # 4002342e <_eusrstack+0x2001e42e>
     314:	bfc5                	j	304 <USBFS_InternalFinishSetup+0x96>

00000316 <handle_reset>:
	asm volatile( "\n\
     316:	20000197          	auipc	gp,0x20000
     31a:	0e618193          	addi	gp,gp,230 # 200003fc <__global_pointer$>
     31e:	20005117          	auipc	sp,0x20005
     322:	ce210113          	addi	sp,sp,-798 # 20005000 <_eusrstack>
     326:	6509                	lui	a0,0x2
     328:	88050513          	addi	a0,a0,-1920 # 1880 <ch32fun.c.9f36c09d+0x1a9>
     32c:	30051073          	csrw	mstatus,a0
     330:	468d                	li	a3,3
     332:	00000517          	auipc	a0,0x0
     336:	cce50513          	addi	a0,a0,-818 # 0 <InterruptVector>
     33a:	8d55                	or	a0,a0,a3
     33c:	30551073          	csrw	mtvec,a0
asm volatile(
     340:	c0418513          	addi	a0,gp,-1020 # 20000000 <millis_cnt>
     344:	20001597          	auipc	a1,0x20001
     348:	a2858593          	addi	a1,a1,-1496 # 20000d6c <_ebss>
     34c:	4601                	li	a2,0
     34e:	00b55663          	bge	a0,a1,35a <handle_reset+0x44>
     352:	c110                	sw	a2,0(a0)
     354:	0511                	addi	a0,a0,4
     356:	feb54ee3          	blt	a0,a1,352 <handle_reset+0x3c>
     35a:	00001517          	auipc	a0,0x1
     35e:	27650513          	addi	a0,a0,630 # 15d0 <_data_lma>
     362:	c0418593          	addi	a1,gp,-1020 # 20000000 <millis_cnt>
     366:	c0418613          	addi	a2,gp,-1020 # 20000000 <millis_cnt>
     36a:	00c58863          	beq	a1,a2,37a <handle_reset+0x64>
     36e:	4114                	lw	a3,0(a0)
     370:	c194                	sw	a3,0(a1)
     372:	0511                	addi	a0,a0,4
     374:	0591                	addi	a1,a1,4
     376:	fec59ae3          	bne	a1,a2,36a <handle_reset+0x54>
	SysTick->CTLR = 5;
     37a:	e000f7b7          	lui	a5,0xe000f
     37e:	4715                	li	a4,5
     380:	c398                	sw	a4,0(a5)
asm volatile(
     382:	6785                	lui	a5,0x1
     384:	e1078793          	addi	a5,a5,-496 # e10 <main>
     388:	34179073          	csrw	mepc,a5
     38c:	30200073          	mret

00000390 <ADC1_2_IRQHandler>:
	asm volatile( "1: j 1b" );
     390:	a001                	j	390 <ADC1_2_IRQHandler>

00000392 <NMI_Handler>:
	RCC->INTR |= RCC_CSSC;	// clear the clock security int flag
     392:	40021737          	lui	a4,0x40021
     396:	471c                	lw	a5,8(a4)
     398:	008006b7          	lui	a3,0x800
     39c:	8fd5                	or	a5,a5,a3
     39e:	c71c                	sw	a5,8(a4)

000003a0 <USBFS_IRQHandler>:
{
     3a0:	7159                	addi	sp,sp,-112
     3a2:	c0be                	sw	a5,64(sp)
	uint16_t intfgst = *(uint16_t*)(&USBFS->INT_FG);
     3a4:	400237b7          	lui	a5,0x40023
{
     3a8:	cc66                	sw	s9,24(sp)
	uint16_t intfgst = *(uint16_t*)(&USBFS->INT_FG);
     3aa:	4067dc83          	lhu	s9,1030(a5) # 40023406 <_eusrstack+0x2001e406>
{
     3ae:	c86e                	sw	s11,16(sp)
     3b0:	d686                	sw	ra,108(sp)
     3b2:	d496                	sw	t0,104(sp)
     3b4:	d29a                	sw	t1,100(sp)
     3b6:	d09e                	sw	t2,96(sp)
     3b8:	cea2                	sw	s0,92(sp)
     3ba:	cca6                	sw	s1,88(sp)
     3bc:	caaa                	sw	a0,84(sp)
     3be:	c8ae                	sw	a1,80(sp)
     3c0:	c6b2                	sw	a2,76(sp)
     3c2:	c4b6                	sw	a3,72(sp)
     3c4:	c2ba                	sw	a4,68(sp)
     3c6:	de42                	sw	a6,60(sp)
     3c8:	dc46                	sw	a7,56(sp)
     3ca:	da4a                	sw	s2,52(sp)
     3cc:	d84e                	sw	s3,48(sp)
     3ce:	d652                	sw	s4,44(sp)
     3d0:	d456                	sw	s5,40(sp)
     3d2:	d25a                	sw	s6,36(sp)
     3d4:	d05e                	sw	s7,32(sp)
     3d6:	ce62                	sw	s8,28(sp)
     3d8:	ca6a                	sw	s10,20(sp)
     3da:	c672                	sw	t3,12(sp)
     3dc:	c476                	sw	t4,8(sp)
     3de:	c27a                	sw	t5,4(sp)
     3e0:	c07e                	sw	t6,0(sp)
	if( intfgst & CRB_UIF_TRANSFER )
     3e2:	002cf793          	andi	a5,s9,2
     3e6:	5e078463          	beqz	a5,9ce <USBFS_IRQHandler+0x62e>
		if( usb_debug ) printf("[USB] TRANSFER, token = %02x, ep = %d, bmRequestType = %02x, bRequest = %02x\n", token, ep, pUSBFS_SetupReqPak->bmRequestType, pUSBFS_SetupReqPak->bRequest);
     3ea:	c0c1c783          	lbu	a5,-1012(gp) # 20000008 <usb_debug>
		int token = ( intfgst & CMASK_UIS_TOKEN) >> 12;
     3ee:	40ccd413          	srai	s0,s9,0xc
		int ep = ( intfgst & CMASK_UIS_ENDP ) >> 8;
     3f2:	408cdb13          	srai	s6,s9,0x8
		int token = ( intfgst & CMASK_UIS_TOKEN) >> 12;
     3f6:	880d                	andi	s0,s0,3
		int ep = ( intfgst & CMASK_UIS_ENDP ) >> 8;
     3f8:	00fb7493          	andi	s1,s6,15
		if( usb_debug ) printf("[USB] TRANSFER, token = %02x, ep = %d, bmRequestType = %02x, bRequest = %02x\n", token, ep, pUSBFS_SetupReqPak->bmRequestType, pUSBFS_SetupReqPak->bRequest);
     3fc:	c385                	beqz	a5,41c <USBFS_IRQHandler+0x7c>
     3fe:	200017b7          	lui	a5,0x20001
     402:	c4078793          	addi	a5,a5,-960 # 20000c40 <USBFSCTX>
     406:	0117c703          	lbu	a4,17(a5)
     40a:	0107c683          	lbu	a3,16(a5)
     40e:	6505                	lui	a0,0x1
     410:	8626                	mv	a2,s1
     412:	85a2                	mv	a1,s0
     414:	3a450513          	addi	a0,a0,932 # 13a4 <language+0x4>
     418:	141000ef          	jal	d58 <printf>
		switch ( token )
     41c:	4609                	li	a2,2
     41e:	04c40f63          	beq	s0,a2,47c <USBFS_IRQHandler+0xdc>
     422:	400237b7          	lui	a5,0x40023
     426:	470d                	li	a4,3
     428:	40078793          	addi	a5,a5,1024 # 40023400 <_eusrstack+0x2001e400>
     42c:	2ae40163          	beq	s0,a4,6ce <USBFS_IRQHandler+0x32e>
     430:	16040363          	beqz	s0,596 <USBFS_IRQHandler+0x1f6>
		USBFS->INT_FG = CRB_UIF_TRANSFER;
     434:	400237b7          	lui	a5,0x40023
     438:	4709                	li	a4,2
     43a:	40e78323          	sb	a4,1030(a5) # 40023406 <_eusrstack+0x2001e406>
}
     43e:	4476                	lw	s0,92(sp)
     440:	50b6                	lw	ra,108(sp)
     442:	52a6                	lw	t0,104(sp)
     444:	5316                	lw	t1,100(sp)
     446:	5386                	lw	t2,96(sp)
     448:	44e6                	lw	s1,88(sp)
     44a:	4556                	lw	a0,84(sp)
     44c:	45c6                	lw	a1,80(sp)
     44e:	4636                	lw	a2,76(sp)
     450:	46a6                	lw	a3,72(sp)
     452:	4716                	lw	a4,68(sp)
     454:	4786                	lw	a5,64(sp)
     456:	5872                	lw	a6,60(sp)
     458:	58e2                	lw	a7,56(sp)
     45a:	5952                	lw	s2,52(sp)
     45c:	59c2                	lw	s3,48(sp)
     45e:	5a32                	lw	s4,44(sp)
     460:	5aa2                	lw	s5,40(sp)
     462:	5b12                	lw	s6,36(sp)
     464:	5b82                	lw	s7,32(sp)
     466:	4c72                	lw	s8,28(sp)
     468:	4ce2                	lw	s9,24(sp)
     46a:	4d52                	lw	s10,20(sp)
     46c:	4dc2                	lw	s11,16(sp)
     46e:	4e32                	lw	t3,12(sp)
     470:	4ea2                	lw	t4,8(sp)
     472:	4f12                	lw	t5,4(sp)
     474:	4f82                	lw	t6,0(sp)
     476:	6165                	addi	sp,sp,112
     478:	30200073          	mret
			if( ep )
     47c:	cca1                	beqz	s1,4d4 <USBFS_IRQHandler+0x134>
				if( ep < FUSB_CONFIG_EPS )
     47e:	00cb7b13          	andi	s6,s6,12
     482:	fa0b19e3          	bnez	s6,434 <USBFS_IRQHandler+0x94>

int HandleInRequest( struct _USBState * ctx, int endp, uint8_t * data, int len )
{
	int ret = 0;  // Just NAK
	// if (usb_debug) printf("HandleInRequest - EP%d\n", endp);
	switch (endp)
     486:	478d                	li	a5,3
     488:	00f49863          	bne	s1,a5,498 <USBFS_IRQHandler+0xf8>
	{
		case 1:
			// ret = -1; // Just ACK
			break;
		case 3:
			cdc.rxing = 0;
     48c:	200017b7          	lui	a5,0x20001
     490:	c0c78793          	addi	a5,a5,-1012 # 20000c0c <cdc>
     494:	00078623          	sb	zero,12(a5)
					UEP_CTRL_TX(ep) ^= USBFS_UEP_T_TOG;
     498:	400237b7          	lui	a5,0x40023
     49c:	42278793          	addi	a5,a5,1058 # 40023422 <_eusrstack+0x2001e422>
     4a0:	00249713          	slli	a4,s1,0x2
     4a4:	973e                	add	a4,a4,a5
     4a6:	00075783          	lhu	a5,0(a4) # 40021000 <_eusrstack+0x2001c000>
     4aa:	0407c793          	xori	a5,a5,64
     4ae:	00f71023          	sh	a5,0(a4)
						UEP_CTRL_TX(ep) = ( UEP_CTRL_TX(ep) & ~USBFS_UEP_T_RES_MASK ) | USBFS_UEP_T_RES_NAK;
     4b2:	00075783          	lhu	a5,0(a4)
     4b6:	07c2                	slli	a5,a5,0x10
     4b8:	83c1                	srli	a5,a5,0x10
     4ba:	9bf1                	andi	a5,a5,-4
     4bc:	0027e793          	ori	a5,a5,2
     4c0:	00f71023          	sh	a5,0(a4)
					ctx->USBFS_Endp_Busy[ ep ] = 0;
     4c4:	200017b7          	lui	a5,0x20001
     4c8:	c4078793          	addi	a5,a5,-960 # 20000c40 <USBFSCTX>
     4cc:	97a6                	add	a5,a5,s1
     4ce:	12078223          	sb	zero,292(a5)
     4d2:	b78d                	j	434 <USBFS_IRQHandler+0x94>
				if( ctx->USBFS_SetupReqLen == 0 )
     4d4:	20001437          	lui	s0,0x20001
     4d8:	c4040793          	addi	a5,s0,-960 # 20000c40 <USBFSCTX>
     4dc:	0027d783          	lhu	a5,2(a5)
     4e0:	c4040413          	addi	s0,s0,-960
     4e4:	e799                	bnez	a5,4f2 <USBFS_IRQHandler+0x152>
					UEP_CTRL_TX(0) = USBFS_UEP_R_RES_ACK | USBFS_UEP_R_TOG;
     4e6:	400237b7          	lui	a5,0x40023
     4ea:	08000713          	li	a4,128
     4ee:	42e79123          	sh	a4,1058(a5) # 40023422 <_eusrstack+0x2001e422>
				if( ctx->pCtrlPayloadPtr )
     4f2:	00c42983          	lw	s3,12(s0)
				ctx->USBFS_errata_dont_send_endpoint_in_window = 0;
     4f6:	12040423          	sb	zero,296(s0)
				if( ctx->pCtrlPayloadPtr )
     4fa:	04098a63          	beqz	s3,54e <USBFS_IRQHandler+0x1ae>
					len = ctx->USBFS_SetupReqLen >= DEF_USBD_UEP0_SIZE ? DEF_USBD_UEP0_SIZE : ctx->USBFS_SetupReqLen;
     4fe:	00245483          	lhu	s1,2(s0)
     502:	04000793          	li	a5,64
     506:	8926                	mv	s2,s1
     508:	0097f363          	bgeu	a5,s1,50e <USBFS_IRQHandler+0x16e>
     50c:	893e                	mv	s2,a5
     50e:	0942                	slli	s2,s2,0x10
     510:	01095913          	srli	s2,s2,0x10
					ctx->USBFS_SetupReqLen -= len;
     514:	412484b3          	sub	s1,s1,s2
					copyBuffer( ctrl0buff, ctx->pCtrlPayloadPtr, len ); // FYI -> Would need to do this if using DMA
     518:	20001537          	lui	a0,0x20001
					ctx->USBFS_SetupReqLen -= len;
     51c:	04c2                	slli	s1,s1,0x10
					copyBuffer( ctrl0buff, ctx->pCtrlPayloadPtr, len ); // FYI -> Would need to do this if using DMA
     51e:	864a                	mv	a2,s2
     520:	85ce                	mv	a1,s3
     522:	c5050513          	addi	a0,a0,-944 # 20000c50 <USBFSCTX+0x10>
					ctx->USBFS_SetupReqLen -= len;
     526:	80c1                	srli	s1,s1,0x10
					copyBuffer( ctrl0buff, ctx->pCtrlPayloadPtr, len ); // FYI -> Would need to do this if using DMA
     528:	273d                	jal	c56 <memcpy>
					ctx->USBFS_SetupReqLen -= len;
     52a:	00941123          	sh	s1,2(s0)
						ctx->pCtrlPayloadPtr = 0;
     52e:	4781                	li	a5,0
					if( ctx->USBFS_SetupReqLen > 0 )
     530:	c099                	beqz	s1,536 <USBFS_IRQHandler+0x196>
						ctx->pCtrlPayloadPtr += len;
     532:	012987b3          	add	a5,s3,s2
     536:	c45c                	sw	a5,12(s0)
					UEP_CTRL_LEN(0) = len;
     538:	400237b7          	lui	a5,0x40023
     53c:	43279023          	sh	s2,1056(a5) # 40023420 <_eusrstack+0x2001e420>
						UEP_CTRL_TX(0) ^= USBFS_UEP_T_TOG;
     540:	4227d703          	lhu	a4,1058(a5)
     544:	04074713          	xori	a4,a4,64
			UEP_CTRL_TX(0) = USBFS_UEP_T_TOG | USBFS_UEP_T_RES_STALL | USBFS_UEP_R_TOG | USBFS_UEP_R_RES_STALL;
     548:	42e79123          	sh	a4,1058(a5)
     54c:	b5e5                	j	434 <USBFS_IRQHandler+0x94>
				else if ( ( ctx->USBFS_SetupReqType & USB_REQ_TYP_MASK ) != USB_REQ_TYP_STANDARD )
     54e:	00144783          	lbu	a5,1(s0)
     552:	0607f793          	andi	a5,a5,96
     556:	cf99                	beqz	a5,574 <USBFS_IRQHandler+0x1d4>
					if( len && USBFSCTX.USBFS_SetupReqCode != HID_GET_REPORT )
     558:	00245783          	lhu	a5,2(s0)
     55c:	ec078ce3          	beqz	a5,434 <USBFS_IRQHandler+0x94>
     560:	00044703          	lbu	a4,0(s0)
     564:	4785                	li	a5,1
     566:	ecf707e3          	beq	a4,a5,434 <USBFS_IRQHandler+0x94>
						UEP_CTRL_LEN(0) = len;
     56a:	400237b7          	lui	a5,0x40023
     56e:	42079023          	sh	zero,1056(a5) # 40023420 <_eusrstack+0x2001e420>
     572:	b7f9                	j	540 <USBFS_IRQHandler+0x1a0>
					switch( USBFSCTX.USBFS_SetupReqCode )
     574:	00044703          	lbu	a4,0(s0)
     578:	4795                	li	a5,5
     57a:	eaf71de3          	bne	a4,a5,434 <USBFS_IRQHandler+0x94>
							USBFS->DEV_ADDR = ( USBFS->DEV_ADDR & USBFS_UDA_GP_BIT ) | ctx->USBFS_DevAddr;
     57e:	400237b7          	lui	a5,0x40023
     582:	4037c683          	lbu	a3,1027(a5) # 40023403 <_eusrstack+0x2001e403>
     586:	00944703          	lbu	a4,9(s0)
     58a:	0806f693          	andi	a3,a3,128
     58e:	8f55                	or	a4,a4,a3
     590:	40e781a3          	sb	a4,1027(a5)
							break;
     594:	b545                	j	434 <USBFS_IRQHandler+0x94>
			len = USBFS->RX_LEN;
     596:	0087d703          	lhu	a4,8(a5)
			switch( ep )
     59a:	e8b1                	bnez	s1,5ee <USBFS_IRQHandler+0x24e>
					if( intfgst & CRB_UIS_TOG_OK )
     59c:	011c9793          	slli	a5,s9,0x11
     5a0:	e807dae3          	bgez	a5,434 <USBFS_IRQHandler+0x94>
						if ( ctx->USBFS_SetupReqCode != HID_SET_REPORT )
     5a4:	200017b7          	lui	a5,0x20001
     5a8:	c4078713          	addi	a4,a5,-960 # 20000c40 <USBFSCTX>
     5ac:	00074603          	lbu	a2,0(a4)
     5b0:	46a5                	li	a3,9
     5b2:	c4078793          	addi	a5,a5,-960
     5b6:	02d60263          	beq	a2,a3,5da <USBFS_IRQHandler+0x23a>
void HandleDataOut( struct _USBState * ctx, int endp, uint8_t * data, int len )
{
	// if (usb_debug) printf("HandleDataOut - EP%d\n", endp);
	if( endp == 0 )
	{
		ctx->USBFS_SetupReqLen = 0; // To ACK
     5ba:	00079123          	sh	zero,2(a5)
							if ( ( ctx->USBFS_SetupReqType & USB_REQ_TYP_IN ) == 0 )
     5be:	00178703          	lb	a4,1(a5)
     5c2:	00074563          	bltz	a4,5cc <USBFS_IRQHandler+0x22c>
								ctx->USBFS_errata_dont_send_endpoint_in_window = 1;
     5c6:	4705                	li	a4,1
     5c8:	12e78423          	sb	a4,296(a5)
							UEP_CTRL_LEN(0) = 0;
     5cc:	400237b7          	lui	a5,0x40023
     5d0:	42079023          	sh	zero,1056(a5) # 40023420 <_eusrstack+0x2001e420>
							UEP_CTRL_TX(0) = USBFS_UEP_T_TOG | CHECK_USBFS_UEP_T_AUTO_TOG | USBFS_UEP_T_RES_ACK;
     5d4:	05000713          	li	a4,80
     5d8:	bf85                	j	548 <USBFS_IRQHandler+0x1a8>
						if( ctx->USBFS_SetupReqLen == 0 )
     5da:	00275703          	lhu	a4,2(a4)
     5de:	d365                	beqz	a4,5be <USBFS_IRQHandler+0x21e>
							UEP_CTRL_TX(0) ^= USBFS_UEP_R_TOG;
     5e0:	400237b7          	lui	a5,0x40023
     5e4:	4227d703          	lhu	a4,1058(a5) # 40023422 <_eusrstack+0x2001e422>
     5e8:	08074713          	xori	a4,a4,128
     5ec:	bfb1                	j	548 <USBFS_IRQHandler+0x1a8>
					UEP_CTRL_TX(ep) ^= USBFS_UEP_R_TOG;
     5ee:	400236b7          	lui	a3,0x40023
     5f2:	42268693          	addi	a3,a3,1058 # 40023422 <_eusrstack+0x2001e422>
     5f6:	00249713          	slli	a4,s1,0x2
     5fa:	9736                	add	a4,a4,a3
     5fc:	00075683          	lhu	a3,0(a4)
     600:	0806c693          	xori	a3,a3,128
     604:	00d71023          	sh	a3,0(a4)
			// cdc.uart->stop_bits = CTRL0BUFF[4];
			// cdc.uart->parity = CTRL0BUFF[5];
			// cdc.uart->word_length = CTRL0BUFF[6];
		}
	}
	if( endp == 2 )
     608:	e2c496e3          	bne	s1,a2,434 <USBFS_IRQHandler+0x94>
	{
		if( cdc.tx_stop )
     60c:	20001737          	lui	a4,0x20001
     610:	c0c70693          	addi	a3,a4,-1012 # 20000c0c <cdc>
     614:	0306c603          	lbu	a2,48(a3)
     618:	c0c70713          	addi	a4,a4,-1012
     61c:	c601                	beqz	a2,624 <USBFS_IRQHandler+0x284>
		{
			cdc.tx_stop = 0;
     61e:	02068823          	sb	zero,48(a3)
			return;
     622:	bd09                	j	434 <USBFS_IRQHandler+0x94>
		}
		// printf("cdc_tx_buffer: 0=%c, 1=%c, 2=%c, 3=%c\n", cdc_tx_buffer[uart.tx_pos], cdc_tx_buffer[uart.tx_pos + 1], cdc_tx_buffer[uart.tx_pos + 2], cdc_tx_buffer[uart.tx_pos + 3]);
		int pad = 4 - USBFS->RX_LEN;
     624:	0087d683          	lhu	a3,8(a5)
		if( pad < 0 ) pad = 0;
		uint32_t write_pos = cdc.tx_pos + cdc.tx_remain + USBFS->RX_LEN;
     628:	5714                	lw	a3,40(a4)
     62a:	534c                	lw	a1,36(a4)
     62c:	0087d783          	lhu	a5,8(a5)
     630:	97ae                	add	a5,a5,a1
     632:	97b6                	add	a5,a5,a3
		if( write_pos > cdc.tx_wrap_pos ) write_pos -= cdc.tx_wrap_pos;
     634:	5754                	lw	a3,44(a4)
     636:	00f6f363          	bgeu	a3,a5,63c <USBFS_IRQHandler+0x29c>
     63a:	8f95                	sub	a5,a5,a3
		if( write_pos & 0x3 )
     63c:	0037f693          	andi	a3,a5,3
     640:	c28d                	beqz	a3,662 <USBFS_IRQHandler+0x2c2>

static inline int USBFS_SendNAK( int endp, int tx )
{
	if( tx ) UEP_CTRL_TX( endp ) = ( UEP_CTRL_TX( endp ) & ~USBFS_UEP_T_RES_MASK ) | USBFS_UEP_T_RES_NAK;
#if defined (CH5xx) || defined (CH32X03x) || defined (CH32V10x)
	else UEP_CTRL_TX(endp) = ( UEP_CTRL_TX(endp) & ~USBFS_UEP_R_RES_MASK ) | USBFS_UEP_R_RES_NAK;
     642:	40023637          	lui	a2,0x40023
     646:	42a65683          	lhu	a3,1066(a2) # 4002342a <_eusrstack+0x2001e42a>
		{
			write_pos = (write_pos + 4) & ~0x3;
     64a:	0791                	addi	a5,a5,4
     64c:	9bf1                	andi	a5,a5,-4
     64e:	06c2                	slli	a3,a3,0x10
     650:	82c1                	srli	a3,a3,0x10
     652:	9acd                	andi	a3,a3,-13
     654:	0086e693          	ori	a3,a3,8
     658:	42d61523          	sh	a3,1066(a2)
			USBFS_SendNAK( 2, 0 );
			// USBFS->UEP2_RX_CTRL &= ~USBFS_UEP_R_RES_MASK;
			// USBFS->UEP2_RX_CTRL |= USBFS_UEP_R_RES_NAK;
			cdc.tx_stop = 1;
     65c:	4685                	li	a3,1
     65e:	02d70823          	sb	a3,48(a4)
		}
		// printf("[HandleDatOut] write_pos = %d, tx_pos = %d, tx_remain = %d, USBFS->RX_LEN = %d \n", write_pos, cdc.tx_pos, cdc.tx_remain, USBFS->RX_LEN);
		// if( write_pos >= uart.tx_wrap_pos) write_pos = uart.tx_remain - (uart.tx_wrap_pos - uart.tx_pos);
		// if( write_pos < uart.tx_pos && write_pos + 64 >= uart.tx_pos ) goto buffer_overflow;
		if( write_pos > ( UART_TX_BUF_SIZE - 64) )
     662:	3c000693          	li	a3,960
     666:	00f6fd63          	bgeu	a3,a5,680 <USBFS_IRQHandler+0x2e0>
		{
			// printf("WRAP -> write_pos = %d > 960, 961 = %c\n", write_pos, cdc_tx_buffer[961]);
			cdc.tx_wrap_pos = cdc.tx_pos + cdc.tx_remain + USBFS->RX_LEN;
     66a:	400237b7          	lui	a5,0x40023
     66e:	40078793          	addi	a5,a5,1024 # 40023400 <_eusrstack+0x2001e400>
     672:	5714                	lw	a3,40(a4)
     674:	0087d783          	lhu	a5,8(a5)
     678:	97ae                	add	a5,a5,a1
     67a:	97b6                	add	a5,a5,a3
     67c:	d75c                	sw	a5,44(a4)
			write_pos = 0;
     67e:	4781                	li	a5,0
		// if( write_pos + len > UART_TX_BUF_SIZE - 1 )
		// {
		//   uart.tx_wrap_pos = write_pos;
		//   write_pos = 0;
		// }
		USBFS->UEP2_DMA = (uint32_t)(cdc_tx_buffer + write_pos);
     680:	200016b7          	lui	a3,0x20001
     684:	80c68693          	addi	a3,a3,-2036 # 2000080c <cdc_tx_buffer>
     688:	97b6                	add	a5,a5,a3
     68a:	400236b7          	lui	a3,0x40023
     68e:	40068693          	addi	a3,a3,1024 # 40023400 <_eusrstack+0x2001e400>
     692:	ce9c                	sw	a5,24(a3)
		// printf("USBFS->UEP2_DMA = %08x\n", USBFS->UEP2_DMA);
		
		if( cdc.tx_remain >= ( UART_TX_BUF_SIZE ) )
     694:	5714                	lw	a3,40(a4)
     696:	3ff00793          	li	a5,1023
     69a:	02d7f063          	bgeu	a5,a3,6ba <USBFS_IRQHandler+0x31a>
     69e:	400236b7          	lui	a3,0x40023
     6a2:	42a6d783          	lhu	a5,1066(a3) # 4002342a <_eusrstack+0x2001e42a>
     6a6:	07c2                	slli	a5,a5,0x10
     6a8:	83c1                	srli	a5,a5,0x10
     6aa:	9bcd                	andi	a5,a5,-13
     6ac:	0087e793          	ori	a5,a5,8
     6b0:	42f69523          	sh	a5,1066(a3)
		{
			// if( usb_debug ) printf("Buffer overflow, %c\n", cdc_tx_buffer[961]);
			USBFS_SendNAK( 2, 0 );
			// USBFS->UEP2_RX_CTRL &= ~USBFS_UEP_R_RES_MASK;
			// USBFS->UEP2_RX_CTRL |= USBFS_UEP_R_RES_NAK;
			cdc.tx_stop = 1;
     6b4:	4785                	li	a5,1
     6b6:	02f70823          	sb	a5,48(a4)
		}
		cdc.tx_remain += USBFS->RX_LEN;
     6ba:	400237b7          	lui	a5,0x40023
     6be:	40078793          	addi	a5,a5,1024 # 40023400 <_eusrstack+0x2001e400>
     6c2:	0087d783          	lhu	a5,8(a5)
     6c6:	5714                	lw	a3,40(a4)
     6c8:	97b6                	add	a5,a5,a3
     6ca:	d71c                	sw	a5,40(a4)
     6cc:	b3a5                	j	434 <USBFS_IRQHandler+0x94>
			if (!(USBFS->INT_ST & 0x80)) goto replycomplete;
     6ce:	0077c783          	lbu	a5,7(a5)
     6d2:	07e2                	slli	a5,a5,0x18
     6d4:	87e1                	srai	a5,a5,0x18
     6d6:	d407dfe3          	bgez	a5,434 <USBFS_IRQHandler+0x94>
			int USBFS_SetupReqType = USBFSCTX.USBFS_SetupReqType  = pUSBFS_SetupReqPak->bmRequestType;
     6da:	20001d37          	lui	s10,0x20001
			UEP_CTRL_TX(0) = USBFS_UEP_T_RES_NAK | USBFS_UEP_T_TOG | USBFS_UEP_R_RES_NAK | USBFS_UEP_R_TOG | CHECK_USBFS_UEP_AUTO_TOG;
     6de:	400237b7          	lui	a5,0x40023
     6e2:	0da00713          	li	a4,218
     6e6:	42e79123          	sh	a4,1058(a5) # 40023422 <_eusrstack+0x2001e422>
			int USBFS_SetupReqType = USBFSCTX.USBFS_SetupReqType  = pUSBFS_SetupReqPak->bmRequestType;
     6ea:	c40d0793          	addi	a5,s10,-960 # 20000c40 <USBFSCTX>
			int USBFS_SetupReqCode = USBFSCTX.USBFS_SetupReqCode  = pUSBFS_SetupReqPak->bRequest;
     6ee:	0107d703          	lhu	a4,16(a5)
     6f2:	0147d983          	lhu	s3,20(a5)
			int USBFS_SetupReqLen = USBFSCTX.USBFS_SetupReqLen    = pUSBFS_SetupReqPak->wLength;
     6f6:	0167dc03          	lhu	s8,22(a5)
			int USBFS_SetupReqCode = USBFSCTX.USBFS_SetupReqCode  = pUSBFS_SetupReqPak->bRequest;
     6fa:	00875693          	srli	a3,a4,0x8
     6fe:	0722                	slli	a4,a4,0x8
     700:	8f55                	or	a4,a4,a3
     702:	c4ed1023          	sh	a4,-960(s10)
     706:	0127d703          	lhu	a4,18(a5)
     70a:	01099a13          	slli	s4,s3,0x10
			int USBFS_SetupReqType = USBFSCTX.USBFS_SetupReqType  = pUSBFS_SetupReqPak->bmRequestType;
     70e:	0107cb83          	lbu	s7,16(a5)
			int USBFS_SetupReqCode = USBFSCTX.USBFS_SetupReqCode  = pUSBFS_SetupReqPak->bRequest;
     712:	00ea6a33          	or	s4,s4,a4
     716:	0117c903          	lbu	s2,17(a5)
			int USBFS_SetupReqLen = USBFSCTX.USBFS_SetupReqLen    = pUSBFS_SetupReqPak->wLength;
     71a:	01879123          	sh	s8,2(a5)
			int USBFS_IndexValue = USBFSCTX.USBFS_IndexValue = ( pUSBFS_SetupReqPak->wIndex << 16 ) | pUSBFS_SetupReqPak->wValue;
     71e:	0147a223          	sw	s4,4(a5)
			if( usb_debug ) printf( "[USB] SETUP: %02x %02x %02d %02x %04x\n", USBFS_SetupReqType, USBFS_SetupReqCode, USBFS_SetupReqLen, USBFS_SetupReqIndex, USBFS_IndexValue );
     722:	c0c1c783          	lbu	a5,-1012(gp) # 20000008 <usb_debug>
			int USBFS_SetupReqLen = USBFSCTX.USBFS_SetupReqLen    = pUSBFS_SetupReqPak->wLength;
     726:	8ae2                	mv	s5,s8
			if( usb_debug ) printf( "[USB] SETUP: %02x %02x %02d %02x %04x\n", USBFS_SetupReqType, USBFS_SetupReqCode, USBFS_SetupReqLen, USBFS_SetupReqIndex, USBFS_IndexValue );
     728:	c40d0413          	addi	s0,s10,-960
     72c:	cb91                	beqz	a5,740 <USBFS_IRQHandler+0x3a0>
     72e:	6505                	lui	a0,0x1
     730:	87d2                	mv	a5,s4
     732:	874e                	mv	a4,s3
     734:	86e2                	mv	a3,s8
     736:	864a                	mv	a2,s2
     738:	85de                	mv	a1,s7
     73a:	3f450513          	addi	a0,a0,1012 # 13f4 <language+0x54>
     73e:	2d29                	jal	d58 <printf>
			if( ( USBFS_SetupReqType & USB_REQ_TYP_MASK ) != USB_REQ_TYP_STANDARD )
     740:	060bf793          	andi	a5,s7,96
     744:	cff1                	beqz	a5,820 <USBFS_IRQHandler+0x480>
				if( ( USBFS_SetupReqType & USB_REQ_TYP_MASK ) == USB_REQ_TYP_CLASS )
     746:	02000713          	li	a4,32
     74a:	10e79b63          	bne	a5,a4,860 <USBFS_IRQHandler+0x4c0>
}

int HandleSetupCustom( struct _USBState * ctx, int setup_code)
{
	int ret = -1;
	if( ctx->USBFS_SetupReqType & USB_REQ_TYP_CLASS )
     74e:	00144983          	lbu	s3,1(s0)
     752:	00e9f733          	and	a4,s3,a4
     756:	cf45                	beqz	a4,80e <USBFS_IRQHandler+0x46e>
	{
		switch( setup_code )
     758:	02200713          	li	a4,34
     75c:	06e90663          	beq	s2,a4,7c8 <USBFS_IRQHandler+0x428>
     760:	01276d63          	bltu	a4,s2,77a <USBFS_IRQHandler+0x3da>
     764:	00f90f63          	beq	s2,a5,782 <USBFS_IRQHandler+0x3e2>
     768:	02100793          	li	a5,33
     76c:	06f90c63          	beq	s2,a5,7e4 <USBFS_IRQHandler+0x444>
			UEP_CTRL_TX(0) = USBFS_UEP_T_TOG | USBFS_UEP_T_RES_STALL | USBFS_UEP_R_TOG | USBFS_UEP_R_RES_STALL;
     770:	400237b7          	lui	a5,0x40023
     774:	0cf00713          	li	a4,207
     778:	bbc1                	j	548 <USBFS_IRQHandler+0x1a8>
     77a:	02300793          	li	a5,35
     77e:	fef919e3          	bne	s2,a5,770 <USBFS_IRQHandler+0x3d0>
					cdc.DTR_state = 0;
				}

			case CDC_SET_LINE_CODING:
			case CDC_SEND_BREAK:
				ret = (ctx->USBFS_SetupReqLen)?ctx->USBFS_SetupReqLen:-1;
     782:	00245483          	lhu	s1,2(s0)
     786:	e4bd                	bnez	s1,7f4 <USBFS_IRQHandler+0x454>
									ctx->USBFS_SetupReqLen = 0;
     788:	00041123          	sh	zero,2(s0)
									len = 0;
     78c:	4481                	li	s1,0
								if( ctx->USBFS_SetupReqType & DEF_UEP_IN || ctx->USBFS_SetupReqLen == 0)
     78e:	09e2                	slli	s3,s3,0x18
     790:	4189d993          	srai	s3,s3,0x18
     794:	0009c563          	bltz	s3,79e <USBFS_IRQHandler+0x3fe>
     798:	00245783          	lhu	a5,2(s0)
     79c:	efad                	bnez	a5,816 <USBFS_IRQHandler+0x476>
									len = len >= DEF_USBD_UEP0_SIZE ? DEF_USBD_UEP0_SIZE : len;
     79e:	04000793          	li	a5,64
     7a2:	0097d363          	bge	a5,s1,7a8 <USBFS_IRQHandler+0x408>
     7a6:	84be                	mv	s1,a5
									UEP_CTRL_LEN(0) = len;
     7a8:	04c2                	slli	s1,s1,0x10
     7aa:	400237b7          	lui	a5,0x40023
     7ae:	80c1                	srli	s1,s1,0x10
     7b0:	42979023          	sh	s1,1056(a5) # 40023420 <_eusrstack+0x2001e420>
									UEP_CTRL_TX(0) = USBFS_UEP_T_TOG|USBFS_UEP_T_RES_ACK;
     7b4:	04000713          	li	a4,64
     7b8:	42e79123          	sh	a4,1058(a5)
									ctx->USBFS_SetupReqLen -= len;
     7bc:	00245783          	lhu	a5,2(s0)
     7c0:	8f85                	sub	a5,a5,s1
     7c2:	00f41123          	sh	a5,2(s0)
     7c6:	b1bd                	j	434 <USBFS_IRQHandler+0x94>
				if (wValue&0x01)
     7c8:	4058                	lw	a4,4(s0)
     7ca:	200017b7          	lui	a5,0x20001
     7ce:	c0c78793          	addi	a5,a5,-1012 # 20000c0c <cdc>
     7d2:	8b05                	andi	a4,a4,1
     7d4:	c709                	beqz	a4,7de <USBFS_IRQHandler+0x43e>
					cdc.DTR_state = 1;
     7d6:	4705                	li	a4,1
     7d8:	02e78923          	sb	a4,50(a5)
     7dc:	b75d                	j	782 <USBFS_IRQHandler+0x3e2>
					cdc.DTR_state = 0;
     7de:	02078923          	sb	zero,50(a5)
     7e2:	b745                	j	782 <USBFS_IRQHandler+0x3e2>

				break;
			case CDC_GET_LINE_CODING:
				ctx->pCtrlPayloadPtr = cdc.cdc_cfg;
     7e4:	200017b7          	lui	a5,0x20001
				ret = ctx->USBFS_SetupReqLen;
     7e8:	00245483          	lhu	s1,2(s0)
				ctx->pCtrlPayloadPtr = cdc.cdc_cfg;
     7ec:	c0c78793          	addi	a5,a5,-1012 # 20000c0c <cdc>
     7f0:	c45c                	sw	a5,12(s0)
							if( len )
     7f2:	dcbd                	beqz	s1,770 <USBFS_IRQHandler+0x3d0>
									copyBuffer( ctrl0buff, ctx->pCtrlPayloadPtr, len );
     7f4:	00c42903          	lw	s2,12(s0)
     7f8:	20001537          	lui	a0,0x20001
     7fc:	8626                	mv	a2,s1
     7fe:	85ca                	mv	a1,s2
     800:	c5050513          	addi	a0,a0,-944 # 20000c50 <USBFSCTX+0x10>
									ctx->pCtrlPayloadPtr += len;
     804:	9926                	add	s2,s2,s1
									copyBuffer( ctrl0buff, ctx->pCtrlPayloadPtr, len );
     806:	2981                	jal	c56 <memcpy>
									ctx->pCtrlPayloadPtr += len;
     808:	01242623          	sw	s2,12(s0)
     80c:	b749                	j	78e <USBFS_IRQHandler+0x3ee>
			default:
				ret = 0;
				break;
		}
	}
	else if( ctx->USBFS_SetupReqType & USB_REQ_TYP_VENDOR )
     80e:	0409f793          	andi	a5,s3,64
     812:	dfb9                	beqz	a5,770 <USBFS_IRQHandler+0x3d0>
     814:	bf95                	j	788 <USBFS_IRQHandler+0x3e8>
								else UEP_CTRL_TX(0)= USBFS_UEP_R_TOG|USBFS_UEP_R_RES_ACK;
     816:	400237b7          	lui	a5,0x40023
     81a:	08000713          	li	a4,128
     81e:	b32d                	j	548 <USBFS_IRQHandler+0x1a8>
				switch( USBFS_SetupReqCode )
     820:	47ad                	li	a5,11
     822:	f527e7e3          	bltu	a5,s2,770 <USBFS_IRQHandler+0x3d0>
     826:	6785                	lui	a5,0x1
     828:	50078793          	addi	a5,a5,1280 # 1500 <language+0x160>
     82c:	090a                	slli	s2,s2,0x2
     82e:	993e                	add	s2,s2,a5
     830:	00092783          	lw	a5,0(s2)
     834:	8782                	jr	a5
						const struct descriptor_list_struct * e = descriptor_list;
     836:	6785                	lui	a5,0x1
     838:	58878793          	addi	a5,a5,1416 # 1588 <descriptor_list>
						for( ; e != e_end; e++ )
     83c:	6685                	lui	a3,0x1
							if( e->lIndexValue == USBFS_IndexValue )
     83e:	4398                	lw	a4,0(a5)
     840:	05471463          	bne	a4,s4,888 <USBFS_IRQHandler+0x4e8>
								ctx->pCtrlPayloadPtr = (uint8_t*)e->addr;
     844:	43d8                	lw	a4,4(a5)
								len = e->length;
     846:	0087c783          	lbu	a5,8(a5)
						ctx->USBFS_SetupReqLen = len;
     84a:	c40d0d13          	addi	s10,s10,-960
								ctx->pCtrlPayloadPtr = (uint8_t*)e->addr;
     84e:	c458                	sw	a4,12(s0)
						if( len > USBFS_SetupReqLen )
     850:	00fc5363          	bge	s8,a5,856 <USBFS_IRQHandler+0x4b6>
     854:	87e2                	mv	a5,s8
						ctx->USBFS_SetupReqLen = len;
     856:	00fd1123          	sh	a5,2(s10)
						ctx->USBFS_DevAddr = (uint8_t)( ctx->USBFS_IndexValue & 0xFF );
     85a:	405c                	lw	a5,4(s0)
     85c:	00f404a3          	sb	a5,9(s0)
				if( USBFS_SetupReqType & DEF_UEP_IN )
     860:	018b9593          	slli	a1,s7,0x18
     864:	85e1                	srai	a1,a1,0x18
     866:	1405d363          	bgez	a1,9ac <USBFS_IRQHandler+0x60c>
					len = ( USBFS_SetupReqLen > DEF_USBD_UEP0_SIZE )? DEF_USBD_UEP0_SIZE : USBFS_SetupReqLen;
     86a:	04000793          	li	a5,64
     86e:	0157d363          	bge	a5,s5,874 <USBFS_IRQHandler+0x4d4>
     872:	8abe                	mv	s5,a5
					UEP_CTRL_LEN(0) = len;
     874:	0ac2                	slli	s5,s5,0x10
     876:	400237b7          	lui	a5,0x40023
     87a:	010ada93          	srli	s5,s5,0x10
     87e:	43579023          	sh	s5,1056(a5) # 40023420 <_eusrstack+0x2001e420>
					UEP_CTRL_TX(0) = USBFS_UEP_T_RES_ACK;
     882:	42079123          	sh	zero,1058(a5)
     886:	b67d                	j	434 <USBFS_IRQHandler+0x94>
						for( ; e != e_end; e++ )
     888:	07b1                	addi	a5,a5,12
     88a:	5d068713          	addi	a4,a3,1488 # 15d0 <_data_lma>
     88e:	fae798e3          	bne	a5,a4,83e <USBFS_IRQHandler+0x49e>
     892:	bdf9                	j	770 <USBFS_IRQHandler+0x3d0>
						ctrl0buff[0] = ctx->USBFS_DevConfig;
     894:	00844783          	lbu	a5,8(s0)
						if( ctx->USBFS_SetupReqLen > 1 )
     898:	00245703          	lhu	a4,2(s0)
						ctrl0buff[0] = ctx->USBFS_DevConfig;
     89c:	00f40823          	sb	a5,16(s0)
						if( ctx->USBFS_SetupReqLen > 1 )
     8a0:	4785                	li	a5,1
     8a2:	fae7ffe3          	bgeu	a5,a4,860 <USBFS_IRQHandler+0x4c0>
							ctx->USBFS_SetupReqLen = 1;
     8a6:	00f41123          	sh	a5,2(s0)
     8aa:	bf5d                	j	860 <USBFS_IRQHandler+0x4c0>
						ctx->USBFS_DevConfig = (uint8_t)( ctx->USBFS_IndexValue & 0xFF );
     8ac:	405c                	lw	a5,4(s0)
     8ae:	00f40423          	sb	a5,8(s0)
						ctx->USBFS_DevEnumStatus = 0x01;
     8b2:	4785                	li	a5,1
     8b4:	00f405a3          	sb	a5,11(s0)
						break;
     8b8:	b765                	j	860 <USBFS_IRQHandler+0x4c0>
						if( ( USBFS_SetupReqType & USB_REQ_RECIP_MASK ) == USB_REQ_RECIP_ENDP )
     8ba:	01fbf713          	andi	a4,s7,31
     8be:	4789                	li	a5,2
     8c0:	eaf718e3          	bne	a4,a5,770 <USBFS_IRQHandler+0x3d0>
							if( (uint8_t)( USBFS_IndexValue & 0xFF ) == USB_REQ_FEAT_ENDP_HALT )
     8c4:	0ffa7a13          	zext.b	s4,s4
     8c8:	ea0a14e3          	bnez	s4,770 <USBFS_IRQHandler+0x3d0>
								if( ep < FUSB_CONFIG_EPS ) 
     8cc:	00cb7b13          	andi	s6,s6,12
     8d0:	ea0b10e3          	bnez	s6,770 <USBFS_IRQHandler+0x3d0>
									if( USBFS_SetupReqIndex & DEF_UEP_IN  && ctx->endpoint_mode[ep] == -1 ) UEP_CTRL_TX(ep) = USBFS_UEP_T_RES_NAK;
     8d4:	0809f993          	andi	s3,s3,128
     8d8:	e8098ce3          	beqz	s3,770 <USBFS_IRQHandler+0x3d0>
     8dc:	04448793          	addi	a5,s1,68
     8e0:	078a                	slli	a5,a5,0x2
     8e2:	97a2                	add	a5,a5,s0
     8e4:	4394                	lw	a3,0(a5)
     8e6:	57fd                	li	a5,-1
     8e8:	e8f694e3          	bne	a3,a5,770 <USBFS_IRQHandler+0x3d0>
     8ec:	400237b7          	lui	a5,0x40023
     8f0:	048a                	slli	s1,s1,0x2
     8f2:	42278793          	addi	a5,a5,1058 # 40023422 <_eusrstack+0x2001e422>
     8f6:	94be                	add	s1,s1,a5
     8f8:	00e49023          	sh	a4,0(s1)
						break;
     8fc:	b795                	j	860 <USBFS_IRQHandler+0x4c0>
						else if( ( USBFS_SetupReqType & USB_REQ_RECIP_MASK ) == USB_REQ_RECIP_ENDP )
     8fe:	01fbf793          	andi	a5,s7,31
     902:	4709                	li	a4,2
     904:	e6e796e3          	bne	a5,a4,770 <USBFS_IRQHandler+0x3d0>
							if( (uint8_t)( USBFS_IndexValue & 0xFF ) == USB_REQ_FEAT_ENDP_HALT )
     908:	0ffa7a13          	zext.b	s4,s4
     90c:	e60a12e3          	bnez	s4,770 <USBFS_IRQHandler+0x3d0>
								if( ep < FUSB_CONFIG_EPS )
     910:	00acd793          	srli	a5,s9,0xa
     914:	8b8d                	andi	a5,a5,3
     916:	f7a9                	bnez	a5,860 <USBFS_IRQHandler+0x4c0>
									if( (USBFS_SetupReqIndex & DEF_UEP_IN) && ctx->endpoint_mode[ep] == -1 )UEP_CTRL_TX(ep) = ( UEP_CTRL_TX(ep) & ~USBFS_UEP_T_RES_MASK ) | USBFS_UEP_T_RES_STALL;
     918:	0809f993          	andi	s3,s3,128
     91c:	e4098ae3          	beqz	s3,770 <USBFS_IRQHandler+0x3d0>
     920:	04448793          	addi	a5,s1,68
     924:	078a                	slli	a5,a5,0x2
     926:	97a2                	add	a5,a5,s0
     928:	4398                	lw	a4,0(a5)
     92a:	57fd                	li	a5,-1
     92c:	e4f712e3          	bne	a4,a5,770 <USBFS_IRQHandler+0x3d0>
     930:	400237b7          	lui	a5,0x40023
     934:	42278793          	addi	a5,a5,1058 # 40023422 <_eusrstack+0x2001e422>
     938:	048a                	slli	s1,s1,0x2
     93a:	94be                	add	s1,s1,a5
     93c:	0004d783          	lhu	a5,0(s1)
     940:	0037e793          	ori	a5,a5,3
     944:	00f49023          	sh	a5,0(s1)
     948:	bf21                	j	860 <USBFS_IRQHandler+0x4c0>
						ctrl0buff[0] = 0x00;
     94a:	00040823          	sb	zero,16(s0)
						if( USBFS_SetupReqLen > 1 ) USBFS_SetupReqLen = 1;
     94e:	f18059e3          	blez	s8,860 <USBFS_IRQHandler+0x4c0>
     952:	4a85                	li	s5,1
     954:	b731                	j	860 <USBFS_IRQHandler+0x4c0>
						ctrl0buff[0] = 0x00;
     956:	00041823          	sh	zero,16(s0)
						if( ( USBFS_SetupReqType & USB_REQ_RECIP_MASK ) == USB_REQ_RECIP_DEVICE )
     95a:	01fbf793          	andi	a5,s7,31
     95e:	c3b1                	beqz	a5,9a2 <USBFS_IRQHandler+0x602>
						else if( ( USBFS_SetupReqType & USB_REQ_RECIP_MASK ) == USB_REQ_RECIP_ENDP )
     960:	4709                	li	a4,2
     962:	e0e797e3          	bne	a5,a4,770 <USBFS_IRQHandler+0x3d0>
							if( ep < FUSB_CONFIG_EPS )
     966:	00cb7b13          	andi	s6,s6,12
     96a:	e00b13e3          	bnez	s6,770 <USBFS_IRQHandler+0x3d0>
								if( USBFS_SetupReqIndex & DEF_UEP_IN && ctx->endpoint_mode[ep] == -1 ) ctrl0buff[0] = ( UEP_CTRL_TX(ep) & USBFS_UEP_T_RES_MASK ) == USBFS_UEP_T_RES_STALL;
     96e:	0809f993          	andi	s3,s3,128
     972:	de098fe3          	beqz	s3,770 <USBFS_IRQHandler+0x3d0>
     976:	04448793          	addi	a5,s1,68
     97a:	078a                	slli	a5,a5,0x2
     97c:	97a2                	add	a5,a5,s0
     97e:	4398                	lw	a4,0(a5)
     980:	57fd                	li	a5,-1
     982:	def717e3          	bne	a4,a5,770 <USBFS_IRQHandler+0x3d0>
     986:	400237b7          	lui	a5,0x40023
     98a:	42278793          	addi	a5,a5,1058 # 40023422 <_eusrstack+0x2001e422>
     98e:	048a                	slli	s1,s1,0x2
     990:	94be                	add	s1,s1,a5
     992:	0004d783          	lhu	a5,0(s1)
     996:	8b8d                	andi	a5,a5,3
     998:	17f5                	addi	a5,a5,-3
     99a:	0017b793          	seqz	a5,a5
     99e:	00f40823          	sb	a5,16(s0)
						if( USBFS_SetupReqLen > 2 )
     9a2:	4789                	li	a5,2
     9a4:	eb87dee3          	bge	a5,s8,860 <USBFS_IRQHandler+0x4c0>
     9a8:	8abe                	mv	s5,a5
     9aa:	bd5d                	j	860 <USBFS_IRQHandler+0x4c0>
					if( USBFS_SetupReqLen == 0 )
     9ac:	400237b7          	lui	a5,0x40023
     9b0:	42278793          	addi	a5,a5,1058 # 40023422 <_eusrstack+0x2001e422>
						UEP_CTRL_TX(0) = CHECK_USBFS_UEP_T_AUTO_TOG | USBFS_UEP_R_RES_ACK | USBFS_UEP_R_TOG;
     9b4:	09000713          	li	a4,144
					if( USBFS_SetupReqLen == 0 )
     9b8:	000a9863          	bnez	s5,9c8 <USBFS_IRQHandler+0x628>
						UEP_CTRL_LEN(0) = 0;
     9bc:	40023737          	lui	a4,0x40023
     9c0:	42071023          	sh	zero,1056(a4) # 40023420 <_eusrstack+0x2001e420>
						UEP_CTRL_TX(0) = USBFS_UEP_T_RES_ACK | USBFS_UEP_T_TOG;
     9c4:	04000713          	li	a4,64
						UEP_CTRL_TX(0) = CHECK_USBFS_UEP_T_AUTO_TOG | USBFS_UEP_R_RES_ACK | USBFS_UEP_R_TOG;
     9c8:	00e79023          	sh	a4,0(a5)
     9cc:	b4a5                	j	434 <USBFS_IRQHandler+0x94>
	else if( intfgst & CRB_UIF_BUS_RST )
     9ce:	001cf793          	andi	a5,s9,1
     9d2:	cb9d                	beqz	a5,a08 <USBFS_IRQHandler+0x668>
		if( usb_debug ) printf("[USB] RESET\n");
     9d4:	c0c1c783          	lbu	a5,-1012(gp) # 20000008 <usb_debug>
     9d8:	c789                	beqz	a5,9e2 <USBFS_IRQHandler+0x642>
     9da:	6505                	lui	a0,0x1
     9dc:	41c50513          	addi	a0,a0,1052 # 141c <language+0x7c>
     9e0:	26a1                	jal	d28 <puts>
		ctx->USBFS_DevConfig = 0;
     9e2:	200017b7          	lui	a5,0x20001
     9e6:	c4078793          	addi	a5,a5,-960 # 20000c40 <USBFSCTX>
     9ea:	00079423          	sh	zero,8(a5)
		ctx->USBFS_DevSleepStatus = 0;
     9ee:	00078523          	sb	zero,10(a5)
		ctx->USBFS_DevEnumStatus = 0;
     9f2:	000785a3          	sb	zero,11(a5)
		USBFS->DEV_ADDR = 0;
     9f6:	40023437          	lui	s0,0x40023
     9fa:	400401a3          	sb	zero,1027(s0) # 40023403 <_eusrstack+0x2001e403>
		USBFS_InternalFinishSetup();
     9fe:	3885                	jal	26e <USBFS_InternalFinishSetup>
		USBFS->INT_FG = CRB_UIF_BUS_RST;
     a00:	4785                	li	a5,1
     a02:	40f40323          	sb	a5,1030(s0)
     a06:	bc25                	j	43e <USBFS_IRQHandler+0x9e>
	else if( intfgst & CRB_UIF_SUSPEND )
     a08:	004cf793          	andi	a5,s9,4
     a0c:	c3b1                	beqz	a5,a50 <USBFS_IRQHandler+0x6b0>
		if( usb_debug ) printf("[USB] SUSPEND\n");
     a0e:	c0c1c783          	lbu	a5,-1012(gp) # 20000008 <usb_debug>
     a12:	c789                	beqz	a5,a1c <USBFS_IRQHandler+0x67c>
     a14:	6505                	lui	a0,0x1
     a16:	42850513          	addi	a0,a0,1064 # 1428 <language+0x88>
     a1a:	2639                	jal	d28 <puts>
		USBFS->INT_FG = USBFS_UMS_SUSPEND;
     a1c:	4791                	li	a5,4
     a1e:	40023437          	lui	s0,0x40023
     a22:	40f40323          	sb	a5,1030(s0) # 40023406 <_eusrstack+0x2001e406>
		Delay_Us(10);
     a26:	1e000513          	li	a0,480
     a2a:	f82ff0ef          	jal	1ac <DelaySysTick>
		if( USBFS->MIS_ST & USBFS_UMS_SUSPEND )
     a2e:	40544683          	lbu	a3,1029(s0)
			ctx->USBFS_DevSleepStatus |= 0x02;
     a32:	20001737          	lui	a4,0x20001
     a36:	c4070713          	addi	a4,a4,-960 # 20000c40 <USBFSCTX>
		if( USBFS->MIS_ST & USBFS_UMS_SUSPEND )
     a3a:	8a91                	andi	a3,a3,4
			ctx->USBFS_DevSleepStatus |= 0x02;
     a3c:	00a74783          	lbu	a5,10(a4)
		if( USBFS->MIS_ST & USBFS_UMS_SUSPEND )
     a40:	c691                	beqz	a3,a4c <USBFS_IRQHandler+0x6ac>
			ctx->USBFS_DevSleepStatus |= 0x02;
     a42:	0027e793          	ori	a5,a5,2
			ctx->USBFS_DevSleepStatus &= ~0x02;
     a46:	00f70523          	sb	a5,10(a4)
     a4a:	bad5                	j	43e <USBFS_IRQHandler+0x9e>
     a4c:	9bf5                	andi	a5,a5,-3
     a4e:	bfe5                	j	a46 <USBFS_IRQHandler+0x6a6>
			USBFS->INT_FG = intfgst & 0xff;
     a50:	400237b7          	lui	a5,0x40023
     a54:	0ffcf713          	zext.b	a4,s9
     a58:	40e78323          	sb	a4,1030(a5) # 40023406 <_eusrstack+0x2001e406>
			if( usb_debug) printf("[USB] intfgst = %04x\n",intfgst);
     a5c:	c0c1c783          	lbu	a5,-1012(gp) # 20000008 <usb_debug>
     a60:	9c078fe3          	beqz	a5,43e <USBFS_IRQHandler+0x9e>
     a64:	6505                	lui	a0,0x1
     a66:	85e6                	mv	a1,s9
     a68:	43850513          	addi	a0,a0,1080 # 1438 <language+0x98>
     a6c:	24f5                	jal	d58 <printf>
}
     a6e:	bac1                	j	43e <USBFS_IRQHandler+0x9e>

00000a70 <strlen>:
	for (; *s; s++);
     a70:	87aa                	mv	a5,a0
     a72:	0007c703          	lbu	a4,0(a5)
     a76:	e701                	bnez	a4,a7e <strlen+0xe>
}
     a78:	40a78533          	sub	a0,a5,a0
     a7c:	8082                	ret
	for (; *s; s++);
     a7e:	0785                	addi	a5,a5,1
     a80:	bfcd                	j	a72 <strlen+0x2>

00000a82 <mini_vpprintf>:
{
     a82:	7175                	addi	sp,sp,-144
     a84:	c522                	sw	s0,136(sp)
     a86:	d2e6                	sw	s9,100(sp)
     a88:	c706                	sw	ra,140(sp)
     a8a:	c326                	sw	s1,132(sp)
     a8c:	c14a                	sw	s2,128(sp)
     a8e:	dece                	sw	s3,124(sp)
     a90:	dcd2                	sw	s4,120(sp)
     a92:	dad6                	sw	s5,116(sp)
     a94:	d8da                	sw	s6,112(sp)
     a96:	d6de                	sw	s7,108(sp)
     a98:	d4e2                	sw	s8,104(sp)
     a9a:	d0ea                	sw	s10,96(sp)
     a9c:	ceee                	sw	s11,92(sp)
     a9e:	8432                	mv	s0,a2
     aa0:	8cb6                	mv	s9,a3
	if(puts == (void*)0) {
     aa2:	e131                	bnez	a0,ae6 <mini_vpprintf+0x64>
		puts = _puts; buf = (void*)0;
     aa4:	4901                	li	s2,0
     aa6:	16a00493          	li	s1,362
	int n = 0;
     aaa:	4981                	li	s3,0
		if (ch!='%') {
     aac:	02500a93          	li	s5,37
			if (ch == '0') pad_char = '0';
     ab0:	03000a13          	li	s4,48
			while (ch >= '0' && ch <= '9') {
     ab4:	4b25                	li	s6,9
				pad_to = pad_to * 10 + (ch - '0');
     ab6:	4ba9                	li	s7,10
	while ((ch=*(fmt++))) {
     ab8:	00044783          	lbu	a5,0(s0)
     abc:	00140d13          	addi	s10,s0,1
     ac0:	00f10fa3          	sb	a5,31(sp)
     ac4:	e785                	bnez	a5,aec <mini_vpprintf+0x6a>
}
     ac6:	40ba                	lw	ra,140(sp)
     ac8:	442a                	lw	s0,136(sp)
     aca:	449a                	lw	s1,132(sp)
     acc:	490a                	lw	s2,128(sp)
     ace:	5a66                	lw	s4,120(sp)
     ad0:	5ad6                	lw	s5,116(sp)
     ad2:	5b46                	lw	s6,112(sp)
     ad4:	5bb6                	lw	s7,108(sp)
     ad6:	5c26                	lw	s8,104(sp)
     ad8:	5c96                	lw	s9,100(sp)
     ada:	5d06                	lw	s10,96(sp)
     adc:	4df6                	lw	s11,92(sp)
     ade:	854e                	mv	a0,s3
     ae0:	59f6                	lw	s3,124(sp)
     ae2:	6149                	addi	sp,sp,144
     ae4:	8082                	ret
     ae6:	84aa                	mv	s1,a0
     ae8:	892e                	mv	s2,a1
     aea:	b7c1                	j	aaa <mini_vpprintf+0x28>
		if (ch!='%') {
     aec:	01578c63          	beq	a5,s5,b04 <mini_vpprintf+0x82>
			len = puts(&ch, len, buf);
     af0:	864a                	mv	a2,s2
     af2:	4585                	li	a1,1
     af4:	01f10513          	addi	a0,sp,31
     af8:	9482                	jalr	s1
     afa:	8c66                	mv	s8,s9
	while ((ch=*(fmt++))) {
     afc:	846a                	mv	s0,s10
		n = n + len;
     afe:	99aa                	add	s3,s3,a0
     b00:	8ce2                	mv	s9,s8
     b02:	bf5d                	j	ab8 <mini_vpprintf+0x36>
			ch=*(fmt++);
     b04:	00144703          	lbu	a4,1(s0)
     b08:	00240793          	addi	a5,s0,2
			if (ch == '0') pad_char = '0';
     b0c:	8d52                	mv	s10,s4
			ch=*(fmt++);
     b0e:	00e10fa3          	sb	a4,31(sp)
			if (ch == '0') pad_char = '0';
     b12:	07471e63          	bne	a4,s4,b8e <mini_vpprintf+0x10c>
				ch=*(fmt++);
     b16:	843e                	mv	s0,a5
     b18:	4681                	li	a3,0
     b1a:	4781                	li	a5,0
     b1c:	a801                	j	b2c <mini_vpprintf+0xaa>
				pad_to = pad_to * 10 + (ch - '0');
     b1e:	037787b3          	mul	a5,a5,s7
				ch=*(fmt++);
     b22:	00044703          	lbu	a4,0(s0)
     b26:	0405                	addi	s0,s0,1
     b28:	4685                	li	a3,1
				pad_to = pad_to * 10 + (ch - '0');
     b2a:	97b2                	add	a5,a5,a2
			while (ch >= '0' && ch <= '9') {
     b2c:	fd070613          	addi	a2,a4,-48
     b30:	0ff67593          	zext.b	a1,a2
     b34:	febb75e3          	bgeu	s6,a1,b1e <mini_vpprintf+0x9c>
     b38:	c299                	beqz	a3,b3e <mini_vpprintf+0xbc>
     b3a:	00e10fa3          	sb	a4,31(sp)
			if(pad_to > (signed int) sizeof(bf)) {
     b3e:	46e1                	li	a3,24
     b40:	8dbe                	mv	s11,a5
     b42:	00f6d363          	bge	a3,a5,b48 <mini_vpprintf+0xc6>
     b46:	8db6                	mv	s11,a3
			if (ch == 'l') {
     b48:	06c00693          	li	a3,108
			char l = 0;
     b4c:	4601                	li	a2,0
			if (ch == 'l') {
     b4e:	00d71863          	bne	a4,a3,b5e <mini_vpprintf+0xdc>
				ch=*(fmt++);
     b52:	00044703          	lbu	a4,0(s0)
				l = 1;
     b56:	4605                	li	a2,1
				ch=*(fmt++);
     b58:	0405                	addi	s0,s0,1
     b5a:	00e10fa3          	sb	a4,31(sp)
			switch (ch) {
     b5e:	01f14683          	lbu	a3,31(sp)
     b62:	06400713          	li	a4,100
     b66:	06e68363          	beq	a3,a4,bcc <mini_vpprintf+0x14a>
     b6a:	02d76563          	bltu	a4,a3,b94 <mini_vpprintf+0x112>
     b6e:	05800793          	li	a5,88
     b72:	0af68063          	beq	a3,a5,c12 <mini_vpprintf+0x190>
     b76:	06300793          	li	a5,99
     b7a:	0af68e63          	beq	a3,a5,c36 <mini_vpprintf+0x1b4>
     b7e:	d6a1                	beqz	a3,ac6 <mini_vpprintf+0x44>
					len = puts(&ch, len, buf);
     b80:	864a                	mv	a2,s2
     b82:	4585                	li	a1,1
     b84:	01f10513          	addi	a0,sp,31
     b88:	9482                	jalr	s1
					break;
     b8a:	8c66                	mv	s8,s9
     b8c:	bf8d                	j	afe <mini_vpprintf+0x7c>
			char pad_char = ' ';
     b8e:	02000d13          	li	s10,32
     b92:	b751                	j	b16 <mini_vpprintf+0x94>
			switch (ch) {
     b94:	07500713          	li	a4,117
     b98:	02e68a63          	beq	a3,a4,bcc <mini_vpprintf+0x14a>
     b9c:	07800713          	li	a4,120
     ba0:	06e68963          	beq	a3,a4,c12 <mini_vpprintf+0x190>
     ba4:	07300713          	li	a4,115
     ba8:	fce69ce3          	bne	a3,a4,b80 <mini_vpprintf+0xfe>
					ptr = va_arg(va, char*);
     bac:	004c8c13          	addi	s8,s9,4
     bb0:	000cac83          	lw	s9,0(s9)
     bb4:	c63e                	sw	a5,12(sp)
					len = mini_strlen(ptr);
     bb6:	8566                	mv	a0,s9
     bb8:	3d65                	jal	a70 <strlen>
					if (pad_to > 0) {
     bba:	47b2                	lw	a5,12(sp)
					len = mini_strlen(ptr);
     bbc:	85aa                	mv	a1,a0
					if (pad_to > 0) {
     bbe:	08f05963          	blez	a5,c50 <mini_vpprintf+0x1ce>
						len = mini_pad(ptr, len, pad_char, pad_to, bf);
     bc2:	1838                	addi	a4,sp,56
     bc4:	86ee                	mv	a3,s11
     bc6:	866a                	mv	a2,s10
     bc8:	8566                	mv	a0,s9
     bca:	a025                	j	bf2 <mini_vpprintf+0x170>
						len = mini_itoa(va_arg(va, unsigned long), 10, 0, (ch=='u'), bf2);
     bcc:	004c8c13          	addi	s8,s9,4
					if(l) {
     bd0:	ca05                	beqz	a2,c00 <mini_vpprintf+0x17e>
						len = mini_itoa(va_arg(va, unsigned long), 10, 0, (ch=='u'), bf2);
     bd2:	f8b68693          	addi	a3,a3,-117
     bd6:	1018                	addi	a4,sp,32
     bd8:	0016b693          	seqz	a3,a3
     bdc:	000ca503          	lw	a0,0(s9)
     be0:	4601                	li	a2,0
     be2:	45a9                	li	a1,10
     be4:	dfaff0ef          	jal	1de <mini_itoa.part.0>
					len = mini_pad(bf2, len, pad_char, pad_to, bf);
     be8:	1838                	addi	a4,sp,56
     bea:	86ee                	mv	a3,s11
     bec:	866a                	mv	a2,s10
     bee:	85aa                	mv	a1,a0
					len = mini_pad(bf2, len, pad_char, pad_to, bf);
     bf0:	1008                	addi	a0,sp,32
     bf2:	ceeff0ef          	jal	e0 <mini_pad>
     bf6:	85aa                	mv	a1,a0
					len = puts(bf, len, buf);
     bf8:	864a                	mv	a2,s2
     bfa:	1828                	addi	a0,sp,56
     bfc:	9482                	jalr	s1
					break;
     bfe:	b701                	j	afe <mini_vpprintf+0x7c>
						if(ch == 'u') {
     c00:	07500793          	li	a5,117
     c04:	1018                	addi	a4,sp,32
     c06:	00f69463          	bne	a3,a5,c0e <mini_vpprintf+0x18c>
	if (radix > 16)
     c0a:	4685                	li	a3,1
     c0c:	bfc1                	j	bdc <mini_vpprintf+0x15a>
     c0e:	4681                	li	a3,0
     c10:	b7f1                	j	bdc <mini_vpprintf+0x15a>
					if(l) {
     c12:	000ca503          	lw	a0,0(s9)
						len = mini_itoa(va_arg(va, unsigned long), 16, (ch=='X'), 1, bf2);
     c16:	fa868613          	addi	a2,a3,-88
     c1a:	1018                	addi	a4,sp,32
     c1c:	4685                	li	a3,1
     c1e:	00163613          	seqz	a2,a2
     c22:	45c1                	li	a1,16
     c24:	dbaff0ef          	jal	1de <mini_itoa.part.0>
						len = mini_itoa(va_arg(va, unsigned long), 10, 0, (ch=='u'), bf2);
     c28:	004c8c13          	addi	s8,s9,4
	if (radix > 16)
     c2c:	85aa                	mv	a1,a0
					len = mini_pad(bf2, len, pad_char, pad_to, bf);
     c2e:	1838                	addi	a4,sp,56
     c30:	86ee                	mv	a3,s11
     c32:	866a                	mv	a2,s10
     c34:	bf75                	j	bf0 <mini_vpprintf+0x16e>
					ch = (char)(va_arg(va, int));
     c36:	000ca783          	lw	a5,0(s9)
     c3a:	004c8c13          	addi	s8,s9,4
					len = mini_pad(&ch, 1, pad_char, pad_to, bf);
     c3e:	1838                	addi	a4,sp,56
					ch = (char)(va_arg(va, int));
     c40:	00f10fa3          	sb	a5,31(sp)
					len = mini_pad(&ch, 1, pad_char, pad_to, bf);
     c44:	86ee                	mv	a3,s11
     c46:	866a                	mv	a2,s10
     c48:	4585                	li	a1,1
     c4a:	01f10513          	addi	a0,sp,31
     c4e:	b755                	j	bf2 <mini_vpprintf+0x170>
						len = puts(ptr, len, buf);
     c50:	864a                	mv	a2,s2
     c52:	8566                	mv	a0,s9
     c54:	b765                	j	bfc <mini_vpprintf+0x17a>

00000c56 <memcpy>:
	for (; n; n--) *d++ = *s++;
     c56:	4781                	li	a5,0
     c58:	00f61363          	bne	a2,a5,c5e <memcpy+0x8>
}
     c5c:	8082                	ret
	for (; n; n--) *d++ = *s++;
     c5e:	00f58733          	add	a4,a1,a5
     c62:	00074683          	lbu	a3,0(a4)
     c66:	00f50733          	add	a4,a0,a5
     c6a:	0785                	addi	a5,a5,1
     c6c:	00d70023          	sb	a3,0(a4)
     c70:	b7e5                	j	c58 <memcpy+0x2>

00000c72 <USBFS_SendEndpointNEW.constprop.0>:
	if( USBFSCTX.USBFS_errata_dont_send_endpoint_in_window || USBFSCTX.USBFS_Endp_Busy[ endp ] ) return -1;
     c72:	200017b7          	lui	a5,0x20001
     c76:	c4078693          	addi	a3,a5,-960 # 20000c40 <USBFSCTX>
     c7a:	1286c603          	lbu	a2,296(a3)
     c7e:	ee3d                	bnez	a2,cfc <USBFS_SendEndpointNEW.constprop.0+0x8a>
int USBFS_SendEndpointNEW( int endp, uint8_t* data, int len, int copy)
     c80:	1141                	addi	sp,sp,-16
     c82:	c226                	sw	s1,4(sp)
     c84:	c606                	sw	ra,12(sp)
     c86:	c422                	sw	s0,8(sp)
     c88:	c4078493          	addi	s1,a5,-960
	if( USBFSCTX.USBFS_errata_dont_send_endpoint_in_window || USBFSCTX.USBFS_Endp_Busy[ endp ] ) return -1;
     c8c:	1276c783          	lbu	a5,295(a3)
     c90:	872a                	mv	a4,a0
     c92:	557d                	li	a0,-1
     c94:	efb9                	bnez	a5,cf2 <USBFS_SendEndpointNEW.constprop.0+0x80>
	if( USBFSCTX.USBFS_SetupReqLen > 0 ) return USBFSCTX.USBFS_SetupReqLen;
     c96:	0026d503          	lhu	a0,2(a3)
     c9a:	ed21                	bnez	a0,cf2 <USBFS_SendEndpointNEW.constprop.0+0x80>
	if( (USBFS->INT_ST & 0x80) ) return -3;
     c9c:	400237b7          	lui	a5,0x40023
     ca0:	40078793          	addi	a5,a5,1024 # 40023400 <_eusrstack+0x2001e400>
     ca4:	0077c783          	lbu	a5,7(a5)
     ca8:	5575                	li	a0,-3
     caa:	07e2                	slli	a5,a5,0x18
     cac:	87e1                	srai	a5,a5,0x18
     cae:	0407c263          	bltz	a5,cf2 <USBFS_SendEndpointNEW.constprop.0+0x80>
     cb2:	842e                	mv	s0,a1
	if ( len )
     cb4:	cd91                	beqz	a1,cd0 <USBFS_SendEndpointNEW.constprop.0+0x5e>
			UEP_DMA( endp ) = (uintptr_t)USBFSCTX.ENDPOINTS[endp];
     cb6:	20001537          	lui	a0,0x20001
     cba:	d1050693          	addi	a3,a0,-752 # 20000d10 <USBFSCTX+0xd0>
     cbe:	400237b7          	lui	a5,0x40023
			copyBuffer( USBFSCTX.ENDPOINTS[endp], data, len );
     cc2:	862e                	mv	a2,a1
			UEP_DMA( endp ) = (uintptr_t)USBFSCTX.ENDPOINTS[endp];
     cc4:	40d7ae23          	sw	a3,1052(a5) # 4002341c <_eusrstack+0x2001e41c>
			copyBuffer( USBFSCTX.ENDPOINTS[endp], data, len );
     cc8:	85ba                	mv	a1,a4
     cca:	d1050513          	addi	a0,a0,-752
     cce:	3761                	jal	c56 <memcpy>
	UEP_CTRL_LEN( endp ) = len;
     cd0:	0442                	slli	s0,s0,0x10
     cd2:	400237b7          	lui	a5,0x40023
     cd6:	8041                	srli	s0,s0,0x10
     cd8:	42879623          	sh	s0,1068(a5) # 4002342c <_eusrstack+0x2001e42c>
	UEP_CTRL_TX( endp ) = ( UEP_CTRL_TX( endp ) & ~USBFS_UEP_T_RES_MASK ) | USBFS_UEP_T_RES_ACK;
     cdc:	42e7d703          	lhu	a4,1070(a5)
     ce0:	66c1                	lui	a3,0x10
     ce2:	16f1                	addi	a3,a3,-4 # fffc <main.c.e1821afc+0xda78>
     ce4:	8f75                	and	a4,a4,a3
     ce6:	42e79723          	sh	a4,1070(a5)
	USBFSCTX.USBFS_Endp_Busy[ endp ] = 1;
     cea:	4785                	li	a5,1
     cec:	12f483a3          	sb	a5,295(s1)
     cf0:	4501                	li	a0,0
}
     cf2:	40b2                	lw	ra,12(sp)
     cf4:	4422                	lw	s0,8(sp)
     cf6:	4492                	lw	s1,4(sp)
     cf8:	0141                	addi	sp,sp,16
     cfa:	8082                	ret
	if( USBFSCTX.USBFS_errata_dont_send_endpoint_in_window || USBFSCTX.USBFS_Endp_Busy[ endp ] ) return -1;
     cfc:	557d                	li	a0,-1
}
     cfe:	8082                	ret

00000d00 <__puts_cdc>:
	write_cdc((uint8_t*)&c, 1);
	return 1;
}

static int __puts_cdc( char *s, int len, void *buf )
{
     d00:	1141                	addi	sp,sp,-16
     d02:	c422                	sw	s0,8(sp)
     d04:	c226                	sw	s1,4(sp)
     d06:	c04a                	sw	s2,0(sp)
     d08:	c606                	sw	ra,12(sp)
     d0a:	84aa                	mv	s1,a0
     d0c:	842e                	mv	s0,a1
		while(USBFS_SendEndpointNEW(3, (uint8_t*)data, len, 1) == -1); 
     d0e:	597d                	li	s2,-1
     d10:	85a2                	mv	a1,s0
     d12:	8526                	mv	a0,s1
     d14:	3fb9                	jal	c72 <USBFS_SendEndpointNEW.constprop.0>
     d16:	ff250de3          	beq	a0,s2,d10 <__puts_cdc+0x10>
	(void)buf;//To zawiera wskanika na oryginalny string z printf

	write_cdc((uint8_t*)s, len);
	return len;
}
     d1a:	40b2                	lw	ra,12(sp)
     d1c:	8522                	mv	a0,s0
     d1e:	4422                	lw	s0,8(sp)
     d20:	4492                	lw	s1,4(sp)
     d22:	4902                	lw	s2,0(sp)
     d24:	0141                	addi	sp,sp,16
     d26:	8082                	ret

00000d28 <puts>:
{
     d28:	1141                	addi	sp,sp,-16
     d2a:	c606                	sw	ra,12(sp)
	int sl = strlen( s );
     d2c:	3391                	jal	a70 <strlen>
}
     d2e:	40b2                	lw	ra,12(sp)
     d30:	0505                	addi	a0,a0,1
     d32:	0141                	addi	sp,sp,16
     d34:	8082                	ret

00000d36 <SystemInit>:
		FLASH->ACTLR = FLASH_ACTLR_LATENCY_1;
	#else
		FLASH->ACTLR = FLASH_ACTLR_LATENCY_0;
	#endif
#elif defined(CH32X03x)
	FLASH->ACTLR = FLASH_ACTLR_LATENCY_2;                   // +2 Cycle Latency (Recommended per TRM)
     d36:	400227b7          	lui	a5,0x40022
     d3a:	4709                	li	a4,2
     d3c:	c398                	sw	a4,0(a5)
	#endif
	#if defined(FUNCONF_USE_PLL) && FUNCONF_USE_PLL
		RCC->CFGR0 = BASE_CFGR0;
		RCC->CTLR  = BASE_CTLR | RCC_HSION | RCC_PLLON; 			// Use HSI, enable PLL.
	#else
		RCC->CFGR0 = RCC_HPRE_DIV1;                               	// PLLCLK = HCLK = SYSCLK = APB1
     d3e:	400217b7          	lui	a5,0x40021
		RCC->CTLR  = BASE_CTLR | RCC_HSION;     					// Use HSI, Only.
     d42:	00080737          	lui	a4,0x80
		RCC->CFGR0 = RCC_HPRE_DIV1;                               	// PLLCLK = HCLK = SYSCLK = APB1
     d46:	0007a223          	sw	zero,4(a5) # 40021004 <_eusrstack+0x2001c004>
		RCC->CTLR  = BASE_CTLR | RCC_HSION;     					// Use HSI, Only.
     d4a:	08170713          	addi	a4,a4,129 # 80081 <main.c.e1821afc+0x7dafd>
     d4e:	c398                	sw	a4,0(a5)
		FLASH->ACTLR = FLASH_ACTLR_LATENCY_0;
	#endif
#endif

#ifndef CH5xx
	RCC->INTR  = 0x009F0000;                               // Clear PLL, CSSC, HSE, HSI and LSI ready flags.
     d50:	009f0737          	lui	a4,0x9f0
     d54:	c798                	sw	a4,8(a5)
	SetupDebugPrintf();
#endif
#if defined(FUNCONF_SUPPORT_CONSTRUCTORS) && FUNCONF_SUPPORT_CONSTRUCTORS
	CallConstructors();
#endif
}
     d56:	8082                	ret

00000d58 <printf>:

int printf( const char* format, ... )
{
     d58:	7139                	addi	sp,sp,-64
     d5a:	d432                	sw	a2,40(sp)
	va_list args;
	va_start( args, format );
	int ret_status = mini_vpprintf(__puts_cdc, 0, format, args);
     d5c:	862a                	mv	a2,a0
     d5e:	6505                	lui	a0,0x1
{
     d60:	d22e                	sw	a1,36(sp)
     d62:	d636                	sw	a3,44(sp)
	int ret_status = mini_vpprintf(__puts_cdc, 0, format, args);
     d64:	4581                	li	a1,0
	va_start( args, format );
     d66:	1054                	addi	a3,sp,36
	int ret_status = mini_vpprintf(__puts_cdc, 0, format, args);
     d68:	d0050513          	addi	a0,a0,-768 # d00 <__puts_cdc>
{
     d6c:	ce06                	sw	ra,28(sp)
     d6e:	d83a                	sw	a4,48(sp)
     d70:	da3e                	sw	a5,52(sp)
     d72:	dc42                	sw	a6,56(sp)
     d74:	de46                	sw	a7,60(sp)
	va_start( args, format );
     d76:	c636                	sw	a3,12(sp)
	int ret_status = mini_vpprintf(__puts_cdc, 0, format, args);
     d78:	3329                	jal	a82 <mini_vpprintf>
	va_end( args );
	return ret_status;
}
     d7a:	40f2                	lw	ra,28(sp)
     d7c:	6121                	addi	sp,sp,64
     d7e:	8082                	ret

00000d80 <spi_write_read>:
    SPI1->CTLR1 |= CTLR1_SPE_Set;            // Bit 6     - Enable SPI

}

uint8_t spi_write_read(uint8_t tx_data)
{
     d80:	1101                	addi	sp,sp,-32
     d82:	cc22                	sw	s0,24(sp)
     d84:	ca26                	sw	s1,20(sp)
     d86:	c84a                	sw	s2,16(sp)
     d88:	c64e                	sw	s3,12(sp)
     d8a:	ce06                	sw	ra,28(sp)
     d8c:	84aa                	mv	s1,a0
	//TX empty status data can be send
	uint8_t counter = 0;
     d8e:	4401                	li	s0,0
	while((SPI1->STATR & SPI_I2S_FLAG_TXE) == 0 && counter < 100) {Delay_Ms( 1 );counter++;}
     d90:	40013937          	lui	s2,0x40013
     d94:	06400993          	li	s3,100
     d98:	00895783          	lhu	a5,8(s2) # 40013008 <_eusrstack+0x2000e008>
     d9c:	8b89                	andi	a5,a5,2
     d9e:	eb85                	bnez	a5,dce <spi_write_read+0x4e>
     da0:	01341e63          	bne	s0,s3,dbc <spi_write_read+0x3c>
	if(counter >=100)
	{
		printf("TX empty not set, timeout reached\n\r");
     da4:	6505                	lui	a0,0x1
     da6:	45050513          	addi	a0,a0,1104 # 1450 <language+0xb0>

	counter =0;
	while((SPI1->STATR & SPI_I2S_FLAG_RXNE) != 0) {Delay_Ms( 1 );counter++;}
	if(counter >=100)
	{
		printf("RX not empty not set, timeout reached\n\r");
     daa:	377d                	jal	d58 <printf>
		return 0;
     dac:	4501                	li	a0,0
		return 0;
	}
	uint16_t rx_data = SPI1->DATAR;
	return (uint8_t)rx_data;
}
     dae:	40f2                	lw	ra,28(sp)
     db0:	4462                	lw	s0,24(sp)
     db2:	44d2                	lw	s1,20(sp)
     db4:	4942                	lw	s2,16(sp)
     db6:	49b2                	lw	s3,12(sp)
     db8:	6105                	addi	sp,sp,32
     dba:	8082                	ret
	while((SPI1->STATR & SPI_I2S_FLAG_TXE) == 0 && counter < 100) {Delay_Ms( 1 );counter++;}
     dbc:	6531                	lui	a0,0xc
     dbe:	b8050513          	addi	a0,a0,-1152 # bb80 <main.c.e1821afc+0x95fc>
     dc2:	0405                	addi	s0,s0,1
     dc4:	be8ff0ef          	jal	1ac <DelaySysTick>
     dc8:	0ff47413          	zext.b	s0,s0
     dcc:	b7f1                	j	d98 <spi_write_read+0x18>
	if(counter >=100)
     dce:	fd340be3          	beq	s0,s3,da4 <spi_write_read+0x24>
	SPI1->DATAR = tx_data;
     dd2:	00991623          	sh	s1,12(s2)
	counter =0;
     dd6:	4401                	li	s0,0
	while((SPI1->STATR & SPI_I2S_FLAG_RXNE) != 0) {Delay_Ms( 1 );counter++;}
     dd8:	400134b7          	lui	s1,0x40013
     ddc:	0084d783          	lhu	a5,8(s1) # 40013008 <_eusrstack+0x2000e008>
     de0:	8b85                	andi	a5,a5,1
     de2:	eb89                	bnez	a5,df4 <spi_write_read+0x74>
	if(counter >=100)
     de4:	06300793          	li	a5,99
     de8:	0087ff63          	bgeu	a5,s0,e06 <spi_write_read+0x86>
		printf("RX not empty not set, timeout reached\n\r");
     dec:	6505                	lui	a0,0x1
     dee:	47450513          	addi	a0,a0,1140 # 1474 <language+0xd4>
     df2:	bf65                	j	daa <spi_write_read+0x2a>
	while((SPI1->STATR & SPI_I2S_FLAG_RXNE) != 0) {Delay_Ms( 1 );counter++;}
     df4:	6531                	lui	a0,0xc
     df6:	b8050513          	addi	a0,a0,-1152 # bb80 <main.c.e1821afc+0x95fc>
     dfa:	0405                	addi	s0,s0,1
     dfc:	bb0ff0ef          	jal	1ac <DelaySysTick>
     e00:	0ff47413          	zext.b	s0,s0
     e04:	bfe1                	j	ddc <spi_write_read+0x5c>
	uint16_t rx_data = SPI1->DATAR;
     e06:	00c4d503          	lhu	a0,12(s1)
	return (uint8_t)rx_data;
     e0a:	0ff57513          	zext.b	a0,a0
     e0e:	b745                	j	dae <spi_write_read+0x2e>

00000e10 <main>:
}

char print_buffer[255];

int main()
{
     e10:	7139                	addi	sp,sp,-64
     e12:	de06                	sw	ra,60(sp)
     e14:	dc22                	sw	s0,56(sp)
     e16:	da26                	sw	s1,52(sp)
     e18:	d84a                	sw	s2,48(sp)
     e1a:	d64e                	sw	s3,44(sp)
     e1c:	d452                	sw	s4,40(sp)
     e1e:	d256                	sw	s5,36(sp)
     e20:	d05a                	sw	s6,32(sp)
     e22:	ce5e                	sw	s7,28(sp)
     e24:	cc62                	sw	s8,24(sp)
     e26:	ca66                	sw	s9,20(sp)
     e28:	c86a                	sw	s10,16(sp)
     e2a:	c66e                	sw	s11,12(sp)
	SystemInit();
     e2c:	3729                	jal	d36 <SystemInit>
volatile uint64_t millis_cnt = 0;

void systick_init(void)
{

	SysTick->CTLR = 0;
     e2e:	e000f7b7          	lui	a5,0xe000f
	SysTick->CMP = DELAY_MS_TIME - 1;
     e32:	6631                	lui	a2,0xc
	SysTick->CTLR = 0;
     e34:	0007a023          	sw	zero,0(a5) # e000f000 <_eusrstack+0xc000a000>
	SysTick->CMP = DELAY_MS_TIME - 1;
     e38:	b7f60613          	addi	a2,a2,-1153 # bb7f <main.c.e1821afc+0x95fb>
     e3c:	cb90                	sw	a2,16(a5)
     e3e:	4681                	li	a3,0
     e40:	cbd4                	sw	a3,20(a5)
	SysTick->CNT = 0;
     e42:	4601                	li	a2,0
     e44:	c790                	sw	a2,8(a5)
     e46:	4681                	li	a3,0
     e48:	c7d4                	sw	a3,12(a5)
	SysTick->CTLR |= SYSTICK_CTLR_STE |  // Enable Counter
     e4a:	4398                	lw	a4,0(a5)
                  SYSTICK_CTLR_STIE |  // Enable Interrupts
                  SYSTICK_CTLR_STCLK;  // Set Clock Source to HCLK/1
	
	cdc.rx_timeout = 0;
     e4c:	20001437          	lui	s0,0x20001
	SysTick->CTLR |= SYSTICK_CTLR_STE |  // Enable Counter
     e50:	00776713          	ori	a4,a4,7
     e54:	c398                	sw	a4,0(a5)
	cdc.usb_timeout = 0;
	millis_cnt = 0;
     e56:	c0c1a223          	sw	a2,-1020(gp) # 20000000 <millis_cnt>
	cdc.rx_timeout = 0;
     e5a:	c0c40793          	addi	a5,s0,-1012 # 20000c0c <cdc>
	millis_cnt = 0;
     e5e:	c0d1a423          	sw	a3,-1016(gp) # 20000004 <millis_cnt+0x4>
	cdc.rx_timeout = 0;
     e62:	0007ae23          	sw	zero,28(a5)
	cdc.usb_timeout = 0;
     e66:	0007a423          	sw	zero,8(a5)
}

// Enable Interrupt (by interrupt number)
RV_STATIC_INLINE void NVIC_EnableIRQ(IRQn_Type IRQn)
{
	NVIC->IENR[((uint32_t)(IRQn) >> 5)] = (1 << ((uint32_t)(IRQn) & 0x1F));
     e6a:	e000eab7          	lui	s5,0xe000e
     e6e:	6705                	lui	a4,0x1
     e70:	10eaa023          	sw	a4,256(s5) # e000e100 <_eusrstack+0xc0009100>
	systick_init();

	funGpioInitAll();
     e74:	40021937          	lui	s2,0x40021
     e78:	01892703          	lw	a4,24(s2) # 40021018 <_eusrstack+0x2001c018>
	USBFS->UEP2_DMA = (uintptr_t)cdc_tx_buffer;
     e7c:	400234b7          	lui	s1,0x40023
     e80:	20001b37          	lui	s6,0x20001
     e84:	01d76713          	ori	a4,a4,29
     e88:	00e92c23          	sw	a4,24(s2)
	RCC->AHBPCENR = RCC_AHBPeriph_SRAM | RCC_AHBPeriph_DMA1;
     e8c:	4715                	li	a4,5
     e8e:	00e92a23          	sw	a4,20(s2)
	cdc.tx_wrap_pos = UART_TX_BUF_SIZE;
     e92:	40000713          	li	a4,1024
     e96:	d7d8                	sw	a4,44(a5)
	cdc.cdc_cfg[0] = (uint8_t)(UART_DEFALT_BAUD);
     e98:	6771                	lui	a4,0x1c
     e9a:	20070713          	addi	a4,a4,512 # 1c200 <main.c.e1821afc+0x19c7c>
     e9e:	c0e42623          	sw	a4,-1012(s0)
	cdc.cdc_cfg[4] = UART_DEFAULT_STOPB;
     ea2:	1e080737          	lui	a4,0x1e080
     ea6:	c3d8                	sw	a4,4(a5)
	USBFS->UEP2_DMA = (uintptr_t)cdc_tx_buffer;
     ea8:	40048493          	addi	s1,s1,1024 # 40023400 <_eusrstack+0x2001e400>
     eac:	80cb0793          	addi	a5,s6,-2036 # 2000080c <cdc_tx_buffer>
     eb0:	cc9c                	sw	a5,24(s1)
	RCC->APB2PCENR |= RCC_APB2Periph_AFIO | RCC_APB2Periph_GPIOC;
     eb2:	01892783          	lw	a5,24(s2)
	AFIO->CTLR = (AFIO->CTLR & ~(UDP_PUE_MASK | UDM_PUE_MASK )) | USB_PHY_V33 | UDP_PUE_1K5 | USB_IOEN;
     eb6:	40010737          	lui	a4,0x40010
	USBFS->INT_EN    = USBFS_UIE_SUSPEND | USBFS_UIE_TRANSFER | USBFS_UIE_BUS_RST;
     eba:	499d                	li	s3,7
	RCC->APB2PCENR |= RCC_APB2Periph_AFIO | RCC_APB2Periph_GPIOC;
     ebc:	0117e793          	ori	a5,a5,17
     ec0:	00f92c23          	sw	a5,24(s2)
	AFIO->CTLR = (AFIO->CTLR & ~(UDP_PUE_MASK | UDM_PUE_MASK )) | USB_PHY_V33 | UDP_PUE_1K5 | USB_IOEN;
     ec4:	4f1c                	lw	a5,24(a4)
	Delay_Us(10);
     ec6:	1e000513          	li	a0,480
     eca:	c0c40413          	addi	s0,s0,-1012
	AFIO->CTLR = (AFIO->CTLR & ~(UDP_PUE_MASK | UDM_PUE_MASK )) | USB_PHY_V33 | UDP_PUE_1K5 | USB_IOEN;
     ece:	f307f793          	andi	a5,a5,-208
     ed2:	0cc7e793          	ori	a5,a5,204
     ed6:	cf1c                	sw	a5,24(a4)
	GPIOC->CFGXR = 	( GPIOC->CFGXR & ~( (0xf<<(4*0)) | (0xf<<(4*1)) ) )  |
     ed8:	40011737          	lui	a4,0x40011
     edc:	4f5c                	lw	a5,28(a4)
     ede:	80cb0b13          	addi	s6,s6,-2036
     ee2:	f007f793          	andi	a5,a5,-256
     ee6:	0847e793          	ori	a5,a5,132
     eea:	cf5c                	sw	a5,28(a4)
	GPIOC->BSXR = 1<<1; // PC17 on.
     eec:	4789                	li	a5,2
     eee:	d31c                	sw	a5,32(a4)
	RCC->AHBPCENR |= RCC_USBFS | RCC_AHBPeriph_DMA1;
     ef0:	01492783          	lw	a5,20(s2)
     ef4:	6705                	lui	a4,0x1
     ef6:	0705                	addi	a4,a4,1 # 1001 <main+0x1f1>
     ef8:	8fd9                	or	a5,a5,a4
     efa:	00f92a23          	sw	a5,20(s2)
	USBFS->BASE_CTRL = USBFS_UC_RESET_SIE | USBFS_UC_CLR_ALL;
     efe:	4799                	li	a5,6
     f00:	00f48023          	sb	a5,0(s1)
	USBFS->BASE_CTRL = 0x00;
     f04:	00048023          	sb	zero,0(s1)
	Delay_Us(10);
     f08:	aa4ff0ef          	jal	1ac <DelaySysTick>
	USBFS->INT_EN    = USBFS_UIE_SUSPEND | USBFS_UIE_TRANSFER | USBFS_UIE_BUS_RST;
     f0c:	01348123          	sb	s3,2(s1)
	USBFS->DEV_ADDR  = 0x00;
     f10:	000481a3          	sb	zero,3(s1)
	USBFS->BASE_CTRL = USBFS_UC_INT_BUSY | USBFS_UC_DMA_EN | USBFS_UC_DEV_PU_EN;
     f14:	02900793          	li	a5,41
     f18:	00f48023          	sb	a5,0(s1)
	USBFS->INT_FG    = 0xff;
     f1c:	57fd                	li	a5,-1
     f1e:	00f48323          	sb	a5,6(s1)
	USBFS_InternalFinishSetup();
     f22:	b4cff0ef          	jal	26e <USBFS_InternalFinishSetup>
	USBFS->UDEV_CTRL = USBFS_UD_PD_DIS | USBFS_UD_PORT_EN;
     f26:	f8100793          	li	a5,-127
     f2a:	00f480a3          	sb	a5,1(s1)
     f2e:	6789                	lui	a5,0x2
     f30:	10faa223          	sw	a5,260(s5)
    RCC->APB2PCENR |= RCC_APB2Periph_GPIOC | RCC_APB2Periph_GPIOA| RCC_APB2Periph_GPIOB | RCC_APB2Periph_SPI1;
     f34:	01892783          	lw	a5,24(s2)
     f38:	6705                	lui	a4,0x1
     f3a:	0771                	addi	a4,a4,28 # 101c <main+0x20c>
     f3c:	8fd9                	or	a5,a5,a4
     f3e:	00f92c23          	sw	a5,24(s2)
    GPIOB->CFGLR &= ~(0xf << (PIN_CS << 2));
     f42:	400117b7          	lui	a5,0x40011
     f46:	c0078793          	addi	a5,a5,-1024 # 40010c00 <_eusrstack+0x2000bc00>
     f4a:	4394                	lw	a3,0(a5)
     f4c:	10000737          	lui	a4,0x10000
     f50:	177d                	addi	a4,a4,-1 # fffffff <main.c.e1821afc+0xfffda7b>
     f52:	8ef9                	and	a3,a3,a4
     f54:	c394                	sw	a3,0(a5)
    GPIOB->CFGLR |= (GPIO_CNF_OUT_PP | GPIO_Speed_50MHz) << (PIN_CS << 2);
     f56:	4394                	lw	a3,0(a5)
     f58:	30000637          	lui	a2,0x30000
	int last_delay = millis_cnt;
	funPinMode( PA9,     GPIO_CFGLR_OUT_10Mhz_PP ); // Set PIN_1 to output
	int state_led = 0;
	while(cdc.DTR_state == 0)
	{
		if((millis_cnt - last_delay) > 100)
     f5c:	06400593          	li	a1,100
    GPIOB->CFGLR |= (GPIO_CNF_OUT_PP | GPIO_Speed_50MHz) << (PIN_CS << 2);
     f60:	8ed1                	or	a3,a3,a2
     f62:	c394                	sw	a3,0(a5)
    GPIOA->CFGLR &= ~(0xf << (PIN_MISO << 2));
     f64:	400117b7          	lui	a5,0x40011
     f68:	80078793          	addi	a5,a5,-2048 # 40010800 <_eusrstack+0x2000b800>
     f6c:	4394                	lw	a3,0(a5)
     f6e:	f1000637          	lui	a2,0xf1000
     f72:	167d                	addi	a2,a2,-1 # f0ffffff <_eusrstack+0xd0ffafff>
     f74:	8ef1                	and	a3,a3,a2
     f76:	c394                	sw	a3,0(a5)
    GPIOA->CFGLR |= (GPIO_CNF_IN_FLOATING) << (PIN_MISO << 2);
     f78:	4394                	lw	a3,0(a5)
     f7a:	04000637          	lui	a2,0x4000
     f7e:	8ed1                	or	a3,a3,a2
     f80:	c394                	sw	a3,0(a5)
    GPIOA->CFGLR &= ~(0xf << (SPI_SCLK << 2));
     f82:	4394                	lw	a3,0(a5)
     f84:	ff100637          	lui	a2,0xff100
     f88:	167d                	addi	a2,a2,-1 # ff0fffff <_eusrstack+0xdf0fafff>
     f8a:	8ef1                	and	a3,a3,a2
     f8c:	c394                	sw	a3,0(a5)
    GPIOA->CFGLR |= (GPIO_CNF_OUT_PP_AF | GPIO_Speed_50MHz) << (SPI_SCLK << 2);
     f8e:	4394                	lw	a3,0(a5)
     f90:	00b00637          	lui	a2,0xb00
     f94:	8ed1                	or	a3,a3,a2
     f96:	c394                	sw	a3,0(a5)
    GPIOA->CFGLR &= ~(0xf << (SPI_MOSI << 2));
     f98:	4394                	lw	a3,0(a5)
     f9a:	8f75                	and	a4,a4,a3
     f9c:	c398                	sw	a4,0(a5)
    GPIOA->CFGLR |= (GPIO_CNF_OUT_PP_AF | GPIO_Speed_50MHz) << (SPI_MOSI << 2);
     f9e:	4398                	lw	a4,0(a5)
     fa0:	b00006b7          	lui	a3,0xb0000
     fa4:	8f55                	or	a4,a4,a3
     fa6:	c398                	sw	a4,0(a5)
    SPI1->CTLR1 = SPI_CPHA_1Edge             // Bit 0     - Clock PHAse, data sampling starts from first clock edge
     fa8:	400137b7          	lui	a5,0x40013
     fac:	30400713          	li	a4,772
     fb0:	00e79023          	sh	a4,0(a5) # 40013000 <_eusrstack+0x2000e000>
    SPI1->CRCR = 7;                          // CRC
     fb4:	01379823          	sh	s3,16(a5)
    SPI1->CTLR1 |= CTLR1_SPE_Set;            // Bit 6     - Enable SPI
     fb8:	0007d703          	lhu	a4,0(a5)
	int state_led = 0;
     fbc:	4981                	li	s3,0
    SPI1->CTLR1 |= CTLR1_SPE_Set;            // Bit 6     - Enable SPI
     fbe:	04076713          	ori	a4,a4,64
     fc2:	00e79023          	sh	a4,0(a5)
	int last_delay = millis_cnt;
     fc6:	c041a703          	lw	a4,-1020(gp) # 20000000 <millis_cnt>
     fca:	c081a783          	lw	a5,-1016(gp) # 20000004 <millis_cnt+0x4>
     fce:	84ba                	mv	s1,a4
	funPinMode( PA9,     GPIO_CFGLR_OUT_10Mhz_PP ); // Set PIN_1 to output
     fd0:	40011737          	lui	a4,0x40011
     fd4:	80470713          	addi	a4,a4,-2044 # 40010804 <_eusrstack+0x2000b804>
     fd8:	431c                	lw	a5,0(a4)
     fda:	f0f7f793          	andi	a5,a5,-241
     fde:	0107e793          	ori	a5,a5,16
     fe2:	c31c                	sw	a5,0(a4)
		if((millis_cnt - last_delay) > 100)
     fe4:	41f4d613          	srai	a2,s1,0x1f
	while(cdc.DTR_state == 0)
     fe8:	03244783          	lbu	a5,50(s0)
     fec:	28078363          	beqz	a5,1272 <main+0x462>
     ff0:	40011bb7          	lui	s7,0x40011
	GPIOB->BCR |= 1 << PIN_CS;
     ff4:	40011ab7          	lui	s5,0x40011
     ff8:	800b8b93          	addi	s7,s7,-2048 # 40010800 <_eusrstack+0x2000b800>
			}

			// int len = sprintf(print_buffer, "hello\n\r");
			// int len = sprintf(print_buffer, "Before flash read\n\r");
			// write_cdc((uint8_t*)print_buffer, len);
			printf("Before flash read\n\r");
     ffc:	6c05                	lui	s8,0x1
	GPIOB->BCR |= 1 << PIN_CS;
     ffe:	c00a8a93          	addi	s5,s5,-1024 # 40010c00 <_eusrstack+0x2000bc00>
	printf("Manuf ID: 0x%x", manuf_id);
    1002:	6c85                	lui	s9,0x1
				ctx->tx_wrap_pos = UART_TX_BUF_SIZE;
    1004:	40000d13          	li	s10,1024
		if((millis_cnt - last_delay) > 1000)
    1008:	c041a503          	lw	a0,-1020(gp) # 20000000 <millis_cnt>
    100c:	c081a583          	lw	a1,-1016(gp) # 20000004 <millis_cnt+0x4>
    1010:	41f4d793          	srai	a5,s1,0x1f
    1014:	40950733          	sub	a4,a0,s1
    1018:	00e53633          	sltu	a2,a0,a4
    101c:	40f587b3          	sub	a5,a1,a5
    1020:	00c79663          	bne	a5,a2,102c <main+0x21c>
    1024:	3e800793          	li	a5,1000
    1028:	08e7f463          	bgeu	a5,a4,10b0 <main+0x2a0>
			last_delay = millis_cnt;
    102c:	c041a703          	lw	a4,-1020(gp) # 20000000 <millis_cnt>
    1030:	c081a783          	lw	a5,-1016(gp) # 20000004 <millis_cnt+0x4>
    1034:	84ba                	mv	s1,a4
			if (state_led == 0)
    1036:	28099163          	bnez	s3,12b8 <main+0x4a8>
				funDigitalWrite( PA9,     FUN_HIGH );
    103a:	20000793          	li	a5,512
    103e:	00fba823          	sw	a5,16(s7)
				state_led = 1;
    1042:	4985                	li	s3,1
			printf("Before flash read\n\r");
    1044:	49cc0513          	addi	a0,s8,1180 # 149c <language+0xfc>
    1048:	3b01                	jal	d58 <printf>
	GPIOB->BCR |= 1 << PIN_CS;
    104a:	014aa783          	lw	a5,20(s5)
	spi_write_read(0x90);
    104e:	09000513          	li	a0,144
	GPIOB->BCR |= 1 << PIN_CS;
    1052:	0807e793          	ori	a5,a5,128
    1056:	00faaa23          	sw	a5,20(s5)
	spi_write_read(0x90);
    105a:	331d                	jal	d80 <spi_write_read>
	spi_write_read(0);
    105c:	4501                	li	a0,0
    105e:	330d                	jal	d80 <spi_write_read>
	spi_write_read(0);
    1060:	4501                	li	a0,0
    1062:	3b39                	jal	d80 <spi_write_read>
	spi_write_read(0);
    1064:	4501                	li	a0,0
    1066:	3b29                	jal	d80 <spi_write_read>
	uint8_t manuf_id = spi_write_read(0);
    1068:	4501                	li	a0,0
    106a:	3b19                	jal	d80 <spi_write_read>
    106c:	8daa                	mv	s11,a0
	uint8_t device_id = spi_write_read(0);
    106e:	4501                	li	a0,0
    1070:	3b01                	jal	d80 <spi_write_read>
	GPIOB->BSHR |= 1 << PIN_CS;
    1072:	010aa783          	lw	a5,16(s5)
	uint8_t device_id = spi_write_read(0);
    1076:	892a                	mv	s2,a0
	printf("Manuf ID: 0x%x", manuf_id);
    1078:	85ee                	mv	a1,s11
	GPIOB->BSHR |= 1 << PIN_CS;
    107a:	0807e793          	ori	a5,a5,128
    107e:	00faa823          	sw	a5,16(s5)
	printf("Manuf ID: 0x%x", manuf_id);
    1082:	4b0c8513          	addi	a0,s9,1200 # 14b0 <language+0x110>
    1086:	39c9                	jal	d58 <printf>
	printf(" Device ID: 0x%x\n\r", device_id);
    1088:	6505                	lui	a0,0x1
    108a:	85ca                	mv	a1,s2
    108c:	4c050513          	addi	a0,a0,1216 # 14c0 <language+0x120>
    1090:	31e1                	jal	d58 <printf>
	if(manuf_id == 0xef && device_id == 0x16)
    1092:	0ef00793          	li	a5,239
    1096:	00fd9963          	bne	s11,a5,10a8 <main+0x298>
    109a:	47d9                	li	a5,22
    109c:	00f91663          	bne	s2,a5,10a8 <main+0x298>
		printf("W25Q64FV 64Mbit(8MB)\n\r");
    10a0:	6505                	lui	a0,0x1
    10a2:	4d450513          	addi	a0,a0,1236 # 14d4 <language+0x134>
    10a6:	394d                	jal	d58 <printf>
			flash_read_info();
			printf("Hello after read\n\r");
    10a8:	6505                	lui	a0,0x1
    10aa:	4ec50513          	addi	a0,a0,1260 # 14ec <language+0x14c>
    10ae:	316d                	jal	d58 <printf>
	if (ctx->txing) 
    10b0:	501c                	lw	a5,32(s0)
    10b2:	cba1                	beqz	a5,1102 <main+0x2f2>
}

// Disable Interrupt (by interrupt number)
RV_STATIC_INLINE void NVIC_DisableIRQ(IRQn_Type IRQn)
{
	NVIC->IRER[((uint32_t)(IRQn) >> 5)] = (1 << ((uint32_t)(IRQn) & 0x1F));
    10b4:	e000e737          	lui	a4,0xe000e
    10b8:	6689                	lui	a3,0x2
    10ba:	18d72223          	sw	a3,388(a4) # e000e184 <_eusrstack+0xc0009184>
		ctx->tx_remain -= ctx->txing;
    10be:	5418                	lw	a4,40(s0)
    10c0:	8f1d                	sub	a4,a4,a5
    10c2:	d418                	sw	a4,40(s0)
		ctx->tx_pos += ctx->txing;
    10c4:	5058                	lw	a4,36(s0)
    10c6:	97ba                	add	a5,a5,a4
		if( ctx->tx_pos & 0x3 ) ctx->tx_pos = (ctx->tx_pos + 4) & ~0x3;
    10c8:	0037f713          	andi	a4,a5,3
    10cc:	c319                	beqz	a4,10d2 <main+0x2c2>
    10ce:	0791                	addi	a5,a5,4
    10d0:	9bf1                	andi	a5,a5,-4
		ctx->tx_pos += ctx->txing;
    10d2:	d05c                	sw	a5,36(s0)
		if ((ctx->tx_stop) && (!ctx->tx_remain)) {
    10d4:	03044783          	lbu	a5,48(s0)
		ctx->txing = 0;
    10d8:	02042023          	sw	zero,32(s0)
		if ((ctx->tx_stop) && (!ctx->tx_remain)) {
    10dc:	cf91                	beqz	a5,10f8 <main+0x2e8>
    10de:	541c                	lw	a5,40(s0)
    10e0:	ef81                	bnez	a5,10f8 <main+0x2e8>
	else UEP_CTRL_TX(endp) = ( UEP_CTRL_TX(endp) & ~USBFS_UEP_R_RES_MASK ) | USBFS_UEP_R_RES_ACK;
    10e2:	400237b7          	lui	a5,0x40023
    10e6:	42a7d703          	lhu	a4,1066(a5) # 4002342a <_eusrstack+0x2001e42a>
    10ea:	66c1                	lui	a3,0x10
    10ec:	16cd                	addi	a3,a3,-13 # fff3 <main.c.e1821afc+0xda6f>
    10ee:	8f75                	and	a4,a4,a3
    10f0:	42e79523          	sh	a4,1066(a5)
			ctx->tx_stop = 0;
    10f4:	02040823          	sb	zero,48(s0)
	NVIC->IENR[((uint32_t)(IRQn) >> 5)] = (1 << ((uint32_t)(IRQn) & 0x1F));
    10f8:	e000e7b7          	lui	a5,0xe000e
    10fc:	6709                	lui	a4,0x2
    10fe:	10e7a223          	sw	a4,260(a5) # e000e104 <_eusrstack+0xc0009104>
	if (ctx->txing == 0 && ctx->tx_remain) 
    1102:	541c                	lw	a5,40(s0)
    1104:	cbc9                	beqz	a5,1196 <main+0x386>
	NVIC->IRER[((uint32_t)(IRQn) >> 5)] = (1 << ((uint32_t)(IRQn) & 0x1F));
    1106:	6709                	lui	a4,0x2
    1108:	e000e7b7          	lui	a5,0xe000e
    110c:	18e7a223          	sw	a4,388(a5) # e000e184 <_eusrstack+0xc0009184>
			if (ctx->tx_wrap_pos <= ctx->tx_pos) 
    1110:	5454                	lw	a3,44(s0)
    1112:	5058                	lw	a4,36(s0)
    1114:	00d76963          	bltu	a4,a3,1126 <main+0x316>
				ctx->tx_pos = 0; 
    1118:	02042223          	sw	zero,36(s0)
				ctx->tx_wrap_pos = UART_TX_BUF_SIZE;
    111c:	03a42623          	sw	s10,44(s0)
    1120:	40000693          	li	a3,1024
    1124:	4701                	li	a4,0
			if(*(cdc_tx_buffer + ctx->tx_pos) == 'r')
    1126:	00eb07b3          	add	a5,s6,a4
    112a:	0007c603          	lbu	a2,0(a5)
    112e:	07200793          	li	a5,114
    1132:	04f61463          	bne	a2,a5,117a <main+0x36a>
    FLASH->KEYR = FLASH_KEY1;
    1136:	456705b7          	lui	a1,0x45670
    113a:	400227b7          	lui	a5,0x40022
    113e:	12358593          	addi	a1,a1,291 # 45670123 <_eusrstack+0x2566b123>
    FLASH->KEYR = FLASH_KEY2;
    1142:	cdef9637          	lui	a2,0xcdef9
    FLASH->KEYR = FLASH_KEY1;
    1146:	c3cc                	sw	a1,4(a5)
    FLASH->KEYR = FLASH_KEY2;
    1148:	9ab60613          	addi	a2,a2,-1621 # cdef89ab <_eusrstack+0xadef39ab>
    114c:	c3d0                	sw	a2,4(a5)
    FLASH->BOOT_MODEKEYR = FLASH_KEY1;
    114e:	d78c                	sw	a1,40(a5)
    FLASH->BOOT_MODEKEYR = FLASH_KEY2;
    1150:	d790                	sw	a2,40(a5)
    FLASH->STATR &= ~(1<<14);
    1152:	47d0                	lw	a2,12(a5)
    1154:	75f1                	lui	a1,0xffffc
    1156:	15fd                	addi	a1,a1,-1 # ffffbfff <_eusrstack+0xdfff6fff>
    1158:	8e6d                	and	a2,a2,a1
    115a:	c7d0                	sw	a2,12(a5)
        FLASH->STATR |= (1<<14);
    115c:	47d0                	lw	a2,12(a5)
    115e:	6591                	lui	a1,0x4
    1160:	8e4d                	or	a2,a2,a1
    1162:	c7d0                	sw	a2,12(a5)
    FLASH->CTLR |= CR_LOCK_Set;
    1164:	4b90                	lw	a2,16(a5)
    1166:	08066613          	ori	a2,a2,128
    116a:	cb90                	sw	a2,16(a5)
}

// Initiate a system reset request
RV_STATIC_INLINE void NVIC_SystemReset(void)
{
	NVIC->CFGR = NVIC_KEY3|(1<<7);
    116c:	beef07b7          	lui	a5,0xbeef0
    1170:	e000e637          	lui	a2,0xe000e
    1174:	08078793          	addi	a5,a5,128 # beef0080 <_eusrstack+0x9eeeb080>
    1178:	c63c                	sw	a5,72(a2)
			uint32_t to_send = (ctx->tx_pos + ctx->tx_remain < ctx->tx_wrap_pos)?ctx->tx_remain:(ctx->tx_wrap_pos - ctx->tx_pos);
    117a:	541c                	lw	a5,40(s0)
    117c:	97ba                	add	a5,a5,a4
    117e:	40e68733          	sub	a4,a3,a4
    1182:	00d7f363          	bgeu	a5,a3,1188 <main+0x378>
    1186:	5418                	lw	a4,40(s0)
			if (to_send == 0) return;
    1188:	c719                	beqz	a4,1196 <main+0x386>
			ctx->txing = to_send;
    118a:	d018                	sw	a4,32(s0)
	NVIC->IENR[((uint32_t)(IRQn) >> 5)] = (1 << ((uint32_t)(IRQn) & 0x1F));
    118c:	e000e7b7          	lui	a5,0xe000e
    1190:	6709                	lui	a4,0x2
    1192:	10e7a223          	sw	a4,260(a5) # e000e104 <_eusrstack+0xc0009104>
	if (ctx->rx_remain) 
    1196:	485c                	lw	a5,20(s0)
    1198:	cbc1                	beqz	a5,1228 <main+0x418>
		if (ctx->rxing == 0) 
    119a:	00c44783          	lbu	a5,12(s0)
    119e:	12079363          	bnez	a5,12c4 <main+0x4b4>
			if( ctx->rx_remain >= USBFS_PACKET_SIZE ) packlen = USBFS_PACKET_SIZE;
    11a2:	4854                	lw	a3,20(s0)
    11a4:	03f00713          	li	a4,63
    11a8:	04000793          	li	a5,64
    11ac:	00d76863          	bltu	a4,a3,11bc <main+0x3ac>
			else if (ctx->rx_timeout >= UART_RX_TIMEOUT) packlen = ctx->rx_remain;
    11b0:	4c54                	lw	a3,28(s0)
    11b2:	4709                	li	a4,2
	uint32_t packlen = 0;
    11b4:	4781                	li	a5,0
			else if (ctx->rx_timeout >= UART_RX_TIMEOUT) packlen = ctx->rx_remain;
    11b6:	00d77363          	bgeu	a4,a3,11bc <main+0x3ac>
    11ba:	485c                	lw	a5,20(s0)
			if (packlen > (UART_RX_BUF_SIZE - ctx->rx_pos)) packlen = (UART_RX_BUF_SIZE - ctx->rx_pos);
    11bc:	4808                	lw	a0,16(s0)
    11be:	6905                	lui	s2,0x1
    11c0:	80090913          	addi	s2,s2,-2048 # 800 <USBFS_IRQHandler+0x460>
    11c4:	40a90933          	sub	s2,s2,a0
    11c8:	0127f363          	bgeu	a5,s2,11ce <main+0x3be>
    11cc:	893e                	mv	s2,a5
			if (packlen) 
    11ce:	04090d63          	beqz	s2,1228 <main+0x418>
	NVIC->IRER[((uint32_t)(IRQn) >> 5)] = (1 << ((uint32_t)(IRQn) & 0x1F));
    11d2:	e000e7b7          	lui	a5,0xe000e
    11d6:	6709                	lui	a4,0x2
    11d8:	18e7a223          	sw	a4,388(a5) # e000e184 <_eusrstack+0xc0009184>
				ret = USBFS_SendEndpointNEW(3, (uint8_t*)(uart_rx_buffer + ctx->rx_pos), packlen, 1);
    11dc:	200007b7          	lui	a5,0x20000
    11e0:	00c78793          	addi	a5,a5,12 # 2000000c <uart_rx_buffer>
    11e4:	85ca                	mv	a1,s2
    11e6:	953e                	add	a0,a0,a5
				ctx->usb_timeout = 0;
    11e8:	00042423          	sw	zero,8(s0)
				ret = USBFS_SendEndpointNEW(3, (uint8_t*)(uart_rx_buffer + ctx->rx_pos), packlen, 1);
    11ec:	3459                	jal	c72 <USBFS_SendEndpointNEW.constprop.0>
				if (ret == 0) 
    11ee:	e905                	bnez	a0,121e <main+0x40e>
					ctx->rxing = packlen;
    11f0:	0ff97793          	zext.b	a5,s2
    11f4:	00f40623          	sb	a5,12(s0)
					ctx->rx_remain -= packlen;
    11f8:	485c                	lw	a5,20(s0)
					if (ctx->rx_pos >= UART_RX_BUF_SIZE) ctx->rx_pos = 0;
    11fa:	7ff00713          	li	a4,2047
					ctx->rx_remain -= packlen;
    11fe:	412787b3          	sub	a5,a5,s2
    1202:	c85c                	sw	a5,20(s0)
					ctx->rx_pos += packlen;
    1204:	481c                	lw	a5,16(s0)
    1206:	97ca                	add	a5,a5,s2
					if (ctx->rx_pos >= UART_RX_BUF_SIZE) ctx->rx_pos = 0;
    1208:	00f77363          	bgeu	a4,a5,120e <main+0x3fe>
    120c:	4781                	li	a5,0
    120e:	c81c                	sw	a5,16(s0)
					if (packlen == USBFS_PACKET_SIZE) ctx->zero_packet_pending = 1;
    1210:	04000793          	li	a5,64
    1214:	00f91563          	bne	s2,a5,121e <main+0x40e>
    1218:	4785                	li	a5,1
    121a:	00f40c23          	sb	a5,24(s0)
	NVIC->IENR[((uint32_t)(IRQn) >> 5)] = (1 << ((uint32_t)(IRQn) & 0x1F));
    121e:	e000e7b7          	lui	a5,0xe000e
    1222:	6709                	lui	a4,0x2
    1224:	10e7a223          	sw	a4,260(a5) # e000e104 <_eusrstack+0xc0009104>
	if (ctx->zero_packet_pending && ctx->rxing == 0 && ctx->usb_timeout >= UART_ZERO_TIMEOUT) 
    1228:	01844783          	lbu	a5,24(s0)
    122c:	dc078ee3          	beqz	a5,1008 <main+0x1f8>
    1230:	00c44783          	lbu	a5,12(s0)
    1234:	dc079ae3          	bnez	a5,1008 <main+0x1f8>
    1238:	4418                	lw	a4,8(s0)
    123a:	03b00793          	li	a5,59
    123e:	dce7f5e3          	bgeu	a5,a4,1008 <main+0x1f8>
	NVIC->IRER[((uint32_t)(IRQn) >> 5)] = (1 << ((uint32_t)(IRQn) & 0x1F));
    1242:	e000e637          	lui	a2,0xe000e
    1246:	6589                	lui	a1,0x2
    1248:	18b62223          	sw	a1,388(a2) # e000e184 <_eusrstack+0xc0009184>
		ctx->rxing = 1;
    124c:	4785                	li	a5,1
    124e:	00f40623          	sb	a5,12(s0)
	if( tx ) UEP_CTRL_TX( endp ) = ( UEP_CTRL_TX( endp ) & ~USBFS_UEP_T_RES_MASK ) | USBFS_UEP_T_RES_ACK;
    1252:	400237b7          	lui	a5,0x40023
    1256:	42e7d703          	lhu	a4,1070(a5) # 4002342e <_eusrstack+0x2001e42e>
    125a:	66c1                	lui	a3,0x10
    125c:	16f1                	addi	a3,a3,-4 # fffc <main.c.e1821afc+0xda78>
		ctx->usb_timeout = 0;
    125e:	00042423          	sw	zero,8(s0)
    1262:	8f75                	and	a4,a4,a3
    1264:	42e79723          	sh	a4,1070(a5)
		ctx->zero_packet_pending = 0;
    1268:	00040c23          	sb	zero,24(s0)
	NVIC->IENR[((uint32_t)(IRQn) >> 5)] = (1 << ((uint32_t)(IRQn) & 0x1F));
    126c:	10b62223          	sw	a1,260(a2)
}
    1270:	bb61                	j	1008 <main+0x1f8>
		if((millis_cnt - last_delay) > 100)
    1272:	c041a783          	lw	a5,-1020(gp) # 20000000 <millis_cnt>
    1276:	c081a803          	lw	a6,-1016(gp) # 20000004 <millis_cnt+0x4>
    127a:	409786b3          	sub	a3,a5,s1
    127e:	00d7b733          	sltu	a4,a5,a3
    1282:	40c807b3          	sub	a5,a6,a2
    1286:	00e79463          	bne	a5,a4,128e <main+0x47e>
    128a:	d4d5ffe3          	bgeu	a1,a3,fe8 <main+0x1d8>
			last_delay = millis_cnt;
    128e:	c041a703          	lw	a4,-1020(gp) # 20000000 <millis_cnt>
    1292:	c081a783          	lw	a5,-1016(gp) # 20000004 <millis_cnt+0x4>
    1296:	400117b7          	lui	a5,0x40011
    129a:	84ba                	mv	s1,a4
			if (state_led == 0)
    129c:	80078793          	addi	a5,a5,-2048 # 40010800 <_eusrstack+0x2000b800>
    12a0:	00099763          	bnez	s3,12ae <main+0x49e>
				funDigitalWrite( PA9,     FUN_HIGH );
    12a4:	20000713          	li	a4,512
    12a8:	cb98                	sw	a4,16(a5)
				state_led = 1;
    12aa:	4985                	li	s3,1
    12ac:	bb25                	j	fe4 <main+0x1d4>
				funDigitalWrite( PA9,     FUN_LOW );
    12ae:	02000737          	lui	a4,0x2000
    12b2:	cb98                	sw	a4,16(a5)
				state_led = 0;
    12b4:	4981                	li	s3,0
    12b6:	b33d                	j	fe4 <main+0x1d4>
				funDigitalWrite( PA9,     FUN_LOW );
    12b8:	020007b7          	lui	a5,0x2000
    12bc:	00fba823          	sw	a5,16(s7)
				state_led = 0;
    12c0:	4981                	li	s3,0
    12c2:	b349                	j	1044 <main+0x234>
			if (ctx->usb_timeout >= UART_USB_TIMEOUT) 
    12c4:	4418                	lw	a4,8(s0)
    12c6:	25700793          	li	a5,599
    12ca:	f4e7ffe3          	bgeu	a5,a4,1228 <main+0x418>
				USBFSCTX.USBFS_Endp_Busy[3] = 0;
    12ce:	200017b7          	lui	a5,0x20001
				ctx->rxing = 0;
    12d2:	00040623          	sb	zero,12(s0)
				USBFSCTX.USBFS_Endp_Busy[3] = 0;
    12d6:	c4078793          	addi	a5,a5,-960 # 20000c40 <USBFSCTX>
    12da:	120783a3          	sb	zero,295(a5)
    12de:	b7a9                	j	1228 <main+0x418>

000012e0 <SysTick_Handler>:
	NVIC_EnableIRQ(SysTick_IRQn);
}

void SysTick_Handler(void) __attribute__((interrupt));
void SysTick_Handler(void)
{
    12e0:	1101                	addi	sp,sp,-32
    12e2:	c63a                	sw	a4,12(sp)
	SysTick->CMP += DELAY_MS_TIME;
    12e4:	e000f737          	lui	a4,0xe000f
{
    12e8:	c242                	sw	a6,4(sp)
	SysTick->CMP += DELAY_MS_TIME;
    12ea:	01072803          	lw	a6,16(a4) # e000f010 <_eusrstack+0xc000a010>
{
    12ee:	c43e                	sw	a5,8(sp)
	SysTick->CMP += DELAY_MS_TIME;
    12f0:	67b1                	lui	a5,0xc
{
    12f2:	c046                	sw	a7,0(sp)
	SysTick->CMP += DELAY_MS_TIME;
    12f4:	b8078793          	addi	a5,a5,-1152 # bb80 <main.c.e1821afc+0x95fc>
    12f8:	01472883          	lw	a7,20(a4)
    12fc:	97c2                	add	a5,a5,a6
{
    12fe:	ce2a                	sw	a0,28(sp)
    1300:	cc2e                	sw	a1,24(sp)
    1302:	ca32                	sw	a2,20(sp)
    1304:	c836                	sw	a3,16(sp)
	SysTick->CMP += DELAY_MS_TIME;
    1306:	0107b533          	sltu	a0,a5,a6
    130a:	cb1c                	sw	a5,16(a4)
    130c:	011506b3          	add	a3,a0,a7
    1310:	cb54                	sw	a3,20(a4)
	SysTick->SR = 0;

	cdc.rx_timeout++;
    1312:	200017b7          	lui	a5,0x20001
	SysTick->SR = 0;
    1316:	00072223          	sw	zero,4(a4)
	cdc.rx_timeout++;
    131a:	c0c78793          	addi	a5,a5,-1012 # 20000c0c <cdc>
    131e:	4fd8                	lw	a4,28(a5)
	cdc.usb_timeout++;
	millis_cnt++;
    1320:	c041a803          	lw	a6,-1020(gp) # 20000000 <millis_cnt>
	cdc.rx_timeout++;
    1324:	0705                	addi	a4,a4,1
    1326:	cfd8                	sw	a4,28(a5)
	cdc.usb_timeout++;
    1328:	4798                	lw	a4,8(a5)
	millis_cnt++;
    132a:	c081a883          	lw	a7,-1016(gp) # 20000004 <millis_cnt+0x4>
    132e:	00180513          	addi	a0,a6,1
    1332:	01053633          	sltu	a2,a0,a6
	cdc.usb_timeout++;
    1336:	0705                	addi	a4,a4,1
	millis_cnt++;
    1338:	c0a1a223          	sw	a0,-1020(gp) # 20000000 <millis_cnt>
	cdc.usb_timeout++;
    133c:	c798                	sw	a4,8(a5)
	millis_cnt++;
    133e:	011607b3          	add	a5,a2,a7
    1342:	c0f1a423          	sw	a5,-1016(gp) # 20000004 <millis_cnt+0x4>
    1346:	4572                	lw	a0,28(sp)
    1348:	45e2                	lw	a1,24(sp)
    134a:	4652                	lw	a2,20(sp)
    134c:	46c2                	lw	a3,16(sp)
    134e:	4732                	lw	a4,12(sp)
    1350:	47a2                	lw	a5,8(sp)
    1352:	4812                	lw	a6,4(sp)
    1354:	4882                	lw	a7,0(sp)
    1356:	6105                	addi	sp,sp,32
    1358:	30200073          	mret

0000135c <string3>:
    135c:	00300308 00370030 00000000              ..0.0.7.....

00001368 <string2>:
    1368:	00550320 00420053 0073002d 00720065      .U.S.B.-.s.e.r.
    1378:	00610069 0020006c 0069006c 006b006e     i.a.l. .l.i.n.k.
    1388:	00000000                                ....

0000138c <string1>:
    138c:	00630310 00330068 00660032 006e0075     ..c.h.3.2.f.u.n.
    139c:	00000000                                ....

000013a0 <language>:
    13a0:	04090304 4253555b 5254205d 46534e41     ....[USB] TRANSF
    13b0:	202c5245 656b6f74 203d206e 78323025     ER, token = %02x
    13c0:	7065202c 25203d20 62202c64 7165526d     , ep = %d, bmReq
    13d0:	74736575 65707954 25203d20 2c783230     uestType = %02x,
    13e0:	65526220 73657571 203d2074 78323025      bRequest = %02x
    13f0:	0000000a 4253555b 4553205d 3a505554     ....[USB] SETUP:
    1400:	32302520 30252078 25207832 20643230      %02x %02x %02d 
    1410:	78323025 34302520 00000a78 4253555b     %02x %04x...[USB
    1420:	4552205d 00544553 4253555b 5553205d     ] RESET.[USB] SU
    1430:	4e455053 00000044 4253555b 6e69205d     SPEND...[USB] in
    1440:	73676674 203d2074 78343025 0000000a     tfgst = %04x....
    1450:	65205854 7974706d 746f6e20 74657320     TX empty not set
    1460:	6974202c 756f656d 65722074 65686361     , timeout reache
    1470:	000d0a64 6e205852 6520746f 7974706d     d...RX not empty
    1480:	746f6e20 74657320 6974202c 756f656d      not set, timeou
    1490:	65722074 65686361 000d0a64 6f666542     t reached...Befo
    14a0:	66206572 6873616c 61657220 000d0a64     re flash read...
    14b0:	756e614d 44492066 7830203a 00007825     Manuf ID: 0x%x..
    14c0:	76654420 20656369 203a4449 78257830      Device ID: 0x%x
    14d0:	00000d0a 51353257 56463436 4d343620     ....W25Q64FV 64M
    14e0:	28746962 29424d38 00000d0a 6c6c6548     bit(8MB)....Hell
    14f0:	6661206f 20726574 64616572 00000d0a     o after read....
    1500:	00000956 000008ba 00000770 000008fe     V.......p.......
    1510:	00000770 0000085a 00000836 00000770     p...Z...6...p...
    1520:	00000894 000008ac 0000094a 00000860     ........J...`...

00001530 <config_descriptor>:
    1530:	00430209 80000102 00040932 02020100     ..C.....2.......
    1540:	24050001 05011000 01000124 02022404     ...$....$....$..
    1550:	00062405 81050701 01004003 00010409     .$.......@......
    1560:	00000a02 02050700 00004002 02830507     .........@......
    1570:	00000040                                @...

00001574 <device_descriptor>:
    1574:	01100112 40000002 d0351209 02010007     .......@..5.....
    1584:	00000103                                ....

00001588 <descriptor_list>:
    1588:	00000100 00001574 00000012 00000200     ....t...........
    1598:	00001530 00000043 00000300 000013a0     0...C...........
    15a8:	00000004 04090301 0000138c 00000010     ................
    15b8:	04090302 00001368 00000020 04090303     ....h... .......
    15c8:	0000135c 00000008                       \.......
