
main.elf:     file format elf32-littleriscv


Disassembly of section .init:

00000000 <InterruptVector>:
	void InterruptVector()         __attribute__((naked)) __attribute((section(".init"))) __attribute((weak,alias("InterruptVectorDefault"))) __attribute((naked));
	void InterruptVectorDefault()  __attribute__((naked)) __attribute((section(".init"))) __attribute((naked));
	void InterruptVectorDefault( void )
	{
		#if !defined(FUNCONF_TINYVECTOR) || !FUNCONF_TINYVECTOR
			asm volatile( DEFAULT_INTERRUPT_VECTOR_CONTENTS );
   0:	3dc0006f          	j	3dc <handle_reset>
   4:	00000000          	.word	0x00000000
   8:	0000049c          	.word	0x0000049c
   c:	00000450          	.word	0x00000450
  10:	00000000          	.word	0x00000000
  14:	00000450          	.word	0x00000450
	...
  20:	00000450          	.word	0x00000450
  24:	00000450          	.word	0x00000450
	...
  30:	00000450          	.word	0x00000450
  34:	00000000          	.word	0x00000000
  38:	00000450          	.word	0x00000450
  3c:	00000000          	.word	0x00000000
  40:	00000450          	.word	0x00000450
  44:	00000450          	.word	0x00000450
  48:	00000450          	.word	0x00000450
  4c:	00000450          	.word	0x00000450
  50:	00000450          	.word	0x00000450
  54:	00000450          	.word	0x00000450
  58:	00000450          	.word	0x00000450
  5c:	00000450          	.word	0x00000450
  60:	00000450          	.word	0x00000450
  64:	00000450          	.word	0x00000450
  68:	00000450          	.word	0x00000450
  6c:	00000450          	.word	0x00000450
  70:	00000450          	.word	0x00000450
  74:	00000450          	.word	0x00000450
  78:	00000450          	.word	0x00000450
  7c:	00000450          	.word	0x00000450
  80:	00000450          	.word	0x00000450
  84:	00000450          	.word	0x00000450
  88:	00000450          	.word	0x00000450
  8c:	00000450          	.word	0x00000450
  90:	00000450          	.word	0x00000450
  94:	00000450          	.word	0x00000450
  98:	00000450          	.word	0x00000450
  9c:	00000450          	.word	0x00000450
  a0:	00000450          	.word	0x00000450
  a4:	00000450          	.word	0x00000450
  a8:	00000450          	.word	0x00000450
  ac:	00000450          	.word	0x00000450
  b0:	00000450          	.word	0x00000450
  b4:	00000450          	.word	0x00000450
  b8:	00000450          	.word	0x00000450
  bc:	00000450          	.word	0x00000450
  c0:	00000450          	.word	0x00000450
  c4:	00000450          	.word	0x00000450
  c8:	00000450          	.word	0x00000450
  cc:	00000450          	.word	0x00000450
  d0:	00000450          	.word	0x00000450
  d4:	00000450          	.word	0x00000450
  d8:	00000450          	.word	0x00000450
  dc:	0000                	.insn	2, 0x
	...

Disassembly of section .text:

000000e0 <PrintHex>:
	while( (*DMDATA0) & 0x80 );
      e0:	e00007b7          	lui	a5,0xe0000
      e4:	38078793          	addi	a5,a5,896 # e0000380 <_eusrstack+0xbfffb380>
      e8:	4398                	lw	a4,0(a5)
      ea:	08077713          	andi	a4,a4,128
      ee:	ff6d                	bnez	a4,e8 <PrintHex+0x8>
	*DMDATA0 = 0x78302088; //" 0x"
      f0:	78302737          	lui	a4,0x78302
      f4:	08870713          	addi	a4,a4,136 # 78302088 <_eusrstack+0x582fd088>
		while( (*DMDATA0) & 0x80 );
      f8:	e00006b7          	lui	a3,0xe0000
	*DMDATA0 = 0x78302088; //" 0x"
      fc:	c398                	sw	a4,0(a5)
		while( (*DMDATA0) & 0x80 );
      fe:	38068693          	addi	a3,a3,896 # e0000380 <_eusrstack+0xbfffb380>
	for( shift = 28; shift >= 0; shift -= 4 )
     102:	4771                	li	a4,28
		s += ( s < 10 ) ? '0' : ('a' - 10);
     104:	4825                	li	a6,9
	for( shift = 28; shift >= 0; shift -= 4 )
     106:	55f1                	li	a1,-4
		while( (*DMDATA0) & 0x80 );
     108:	429c                	lw	a5,0(a3)
     10a:	0807f793          	andi	a5,a5,128
     10e:	ffed                	bnez	a5,108 <PrintHex+0x28>
		int s = (n>>shift) & 0xf;
     110:	00e55633          	srl	a2,a0,a4
     114:	8a3d                	andi	a2,a2,15
		s += ( s < 10 ) ? '0' : ('a' - 10);
     116:	00c837b3          	sltu	a5,a6,a2
     11a:	40f007b3          	neg	a5,a5
     11e:	0277f793          	andi	a5,a5,39
     122:	03078793          	addi	a5,a5,48
     126:	97b2                	add	a5,a5,a2
		*DMDATA0 = 0x85 | (s<<8); //" 0x"
     128:	07a2                	slli	a5,a5,0x8
     12a:	0857e793          	ori	a5,a5,133
     12e:	c29c                	sw	a5,0(a3)
	for( shift = 28; shift >= 0; shift -= 4 )
     130:	1771                	addi	a4,a4,-4
     132:	fcb71be3          	bne	a4,a1,108 <PrintHex+0x28>
}
     136:	8082                	ret

00000138 <DelaySysTick>:
{
#if defined(CH32V003) || defined(CH32V00x)
	uint32_t targend = SysTick->CNT + n;
	while( ((int32_t)( SysTick->CNT - targend )) < 0 );
#elif defined(CH32V20x) || defined(CH32V30x) || defined(CH32X03x) || defined(CH32L103) || defined(CH582_CH583) || defined(CH591_CH592)
	uint64_t targend = SysTick->CNT + n;
     138:	e000f837          	lui	a6,0xe000f
     13c:	00882703          	lw	a4,8(a6) # e000f008 <_eusrstack+0xc000a008>
     140:	00c82783          	lw	a5,12(a6)
     144:	00e505b3          	add	a1,a0,a4
     148:	00a5b533          	sltu	a0,a1,a0
     14c:	953e                	add	a0,a0,a5
	while( ((int64_t)( SysTick->CNT - targend )) < 0 );
     14e:	00882603          	lw	a2,8(a6)
     152:	00c82683          	lw	a3,12(a6)
     156:	40b60733          	sub	a4,a2,a1
     15a:	00e63733          	sltu	a4,a2,a4
     15e:	40a687b3          	sub	a5,a3,a0
     162:	8f99                	sub	a5,a5,a4
     164:	fe07c5e3          	bltz	a5,14e <DelaySysTick+0x16>
	uint64_t targend = SysTick->CNT - n;
	while( ((int64_t)( SysTick->CNT - targend )) > 0 );
#else
	#error DelaySysTick not defined.
#endif
}
     168:	8082                	ret

0000016a <SPI_send_DMA>:
/// \param buffer Memory address
/// \param size Memory size
/// \param repeat Repeat times
static void SPI_send_DMA(const uint8_t* buffer, uint16_t size, uint16_t repeat)
{
    DMA1_Channel3->MADDR = (uint32_t)buffer;
     16a:	400207b7          	lui	a5,0x40020
     16e:	dfc8                	sw	a0,60(a5)
    DMA1_Channel3->CNTR  = size;
     170:	dbcc                	sw	a1,52(a5)
    DMA1_Channel3->CFGR |= DMA_CFGR1_EN;  // Turn on channel
     172:	5b98                	lw	a4,48(a5)

    // Circulate the buffer
    while (repeat--)
    {
        // Clear flag, start sending?
        DMA1->INTFCR = DMA1_FLAG_TC3;
     174:	400206b7          	lui	a3,0x40020
     178:	20000593          	li	a1,512
    DMA1_Channel3->CFGR |= DMA_CFGR1_EN;  // Turn on channel
     17c:	00176713          	ori	a4,a4,1
     180:	db98                	sw	a4,48(a5)
    while (repeat--)
     182:	67c1                	lui	a5,0x10
     184:	17fd                	addi	a5,a5,-1 # ffff <_data_lma+0xcb73>
     186:	167d                	addi	a2,a2,-1
     188:	0642                	slli	a2,a2,0x10
     18a:	8241                	srli	a2,a2,0x10
     18c:	00f61863          	bne	a2,a5,19c <SPI_send_DMA+0x32>
        // Waiting for channel 3 transmission complete
        while (!(DMA1->INTFR & DMA1_FLAG_TC3))
            ;
    }

    DMA1_Channel3->CFGR &= ~DMA_CFGR1_EN;  // Turn off channel
     190:	400207b7          	lui	a5,0x40020
     194:	5b98                	lw	a4,48(a5)
     196:	9b79                	andi	a4,a4,-2
     198:	db98                	sw	a4,48(a5)
}
     19a:	8082                	ret
        DMA1->INTFCR = DMA1_FLAG_TC3;
     19c:	c2cc                	sw	a1,4(a3)
        while (!(DMA1->INTFR & DMA1_FLAG_TC3))
     19e:	4298                	lw	a4,0(a3)
     1a0:	20077713          	andi	a4,a4,512
     1a4:	df6d                	beqz	a4,19e <SPI_send_DMA+0x34>
     1a6:	b7c5                	j	186 <SPI_send_DMA+0x1c>

000001a8 <SPI_send>:
/// \brief Send Data Directly Through SPI
/// \param data 8-bit data
static void SPI_send(uint8_t data)
{
    // Send byte
    SPI1->DATAR = data;
     1a8:	40013737          	lui	a4,0x40013
     1ac:	00a71623          	sh	a0,12(a4) # 4001300c <_eusrstack+0x2000e00c>

    // Waiting for transmission complete
    while (!(SPI1->STATR & SPI_STATR_TXE))
     1b0:	00875783          	lhu	a5,8(a4)
     1b4:	8b89                	andi	a5,a5,2
     1b6:	dfed                	beqz	a5,1b0 <SPI_send+0x8>
        ;
}
     1b8:	8082                	ret

000001ba <write_command_8>:

/// \brief Send 8-Bit Command
/// \param cmd 8-bit command
static void write_command_8(uint8_t cmd)
{
    COMMAND_MODE();
     1ba:	400117b7          	lui	a5,0x40011
     1be:	80078793          	addi	a5,a5,-2048 # 40010800 <_eusrstack+0x2000b800>
     1c2:	4bd8                	lw	a4,20(a5)
     1c4:	04076713          	ori	a4,a4,64
     1c8:	cbd8                	sw	a4,20(a5)
    SPI_send(cmd);
     1ca:	bff9                	j	1a8 <SPI_send>

000001cc <write_data_16>:

/// \brief Send 16-Bit Data
/// \param cmd 16-bit data
static void write_data_16(uint16_t data)
{
    DATA_MODE();
     1cc:	400117b7          	lui	a5,0x40011
     1d0:	80078793          	addi	a5,a5,-2048 # 40010800 <_eusrstack+0x2000b800>
     1d4:	4b98                	lw	a4,16(a5)
{
     1d6:	1141                	addi	sp,sp,-16
     1d8:	c422                	sw	s0,8(sp)
     1da:	c606                	sw	ra,12(sp)
    DATA_MODE();
     1dc:	04076713          	ori	a4,a4,64
{
     1e0:	842a                	mv	s0,a0
    DATA_MODE();
     1e2:	cb98                	sw	a4,16(a5)
    SPI_send(data >> 8);
     1e4:	8121                	srli	a0,a0,0x8
     1e6:	37c9                	jal	1a8 <SPI_send>
    SPI_send(data);
     1e8:	0ff47513          	zext.b	a0,s0
}
     1ec:	4422                	lw	s0,8(sp)
     1ee:	40b2                	lw	ra,12(sp)
     1f0:	0141                	addi	sp,sp,16
    SPI_send(data);
     1f2:	bf5d                	j	1a8 <SPI_send>

000001f4 <tft_set_window>:
/// \param x0 Start column
/// \param y0 Start row
/// \param x1 End column
/// \param y1 End row
static void tft_set_window(uint16_t x0, uint16_t y0, uint16_t x1, uint16_t y1)
{
     1f4:	1101                	addi	sp,sp,-32
     1f6:	c64e                	sw	s3,12(sp)
     1f8:	89aa                	mv	s3,a0
    write_command_8(ST7789_CASET);
     1fa:	02a00513          	li	a0,42
{
     1fe:	ce06                	sw	ra,28(sp)
     200:	cc22                	sw	s0,24(sp)
     202:	ca26                	sw	s1,20(sp)
     204:	c84a                	sw	s2,16(sp)
     206:	84ae                	mv	s1,a1
     208:	8932                	mv	s2,a2
     20a:	8436                	mv	s0,a3
    write_command_8(ST7789_CASET);
     20c:	377d                	jal	1ba <write_command_8>
    write_data_16(x0);
     20e:	854e                	mv	a0,s3
     210:	3f75                	jal	1cc <write_data_16>
    write_data_16(x1);
     212:	854a                	mv	a0,s2
     214:	3f65                	jal	1cc <write_data_16>
    write_command_8(ST7789_RASET);
     216:	02b00513          	li	a0,43
     21a:	3745                	jal	1ba <write_command_8>
    write_data_16(y0);
     21c:	8526                	mv	a0,s1
     21e:	377d                	jal	1cc <write_data_16>
    write_data_16(y1);
     220:	8522                	mv	a0,s0
     222:	376d                	jal	1cc <write_data_16>
    write_command_8(ST7789_RAMWR);
}
     224:	4462                	lw	s0,24(sp)
     226:	40f2                	lw	ra,28(sp)
     228:	44d2                	lw	s1,20(sp)
     22a:	4942                	lw	s2,16(sp)
     22c:	49b2                	lw	s3,12(sp)
    write_command_8(ST7789_RAMWR);
     22e:	02c00513          	li	a0,44
}
     232:	6105                	addi	sp,sp,32
    write_command_8(ST7789_RAMWR);
     234:	b759                	j	1ba <write_command_8>

00000236 <tft_print>:
}

/// \brief Print a String
/// \param str String to print
void tft_print(const char* str)
{
     236:	7179                	addi	sp,sp,-48
     238:	d422                	sw	s0,40(sp)
     23a:	ce4e                	sw	s3,28(sp)
     23c:	cc52                	sw	s4,24(sp)
     23e:	ca56                	sw	s5,20(sp)
     240:	c85a                	sw	s6,16(sp)
     242:	c65e                	sw	s7,12(sp)
     244:	c462                	sw	s8,8(sp)
     246:	c266                	sw	s9,4(sp)
     248:	d606                	sw	ra,44(sp)
     24a:	d226                	sw	s1,36(sp)
     24c:	d04a                	sw	s2,32(sp)
     24e:	c06a                	sw	s10,0(sp)
     250:	842a                	mv	s0,a0
     252:	4a15                	li	s4,5
                _buffer[sz++] = _color >> 8;
     254:	4ba9                	li	s7,10
     256:	4c05                	li	s8,1
            if ((*(start + j)) & (0x01 << i))
     258:	6c8d                	lui	s9,0x3
    while (*str)
     25a:	00044783          	lbu	a5,0(s0)
     25e:	ef99                	bnez	a5,27c <tft_print+0x46>
    {
        tft_print_char(*str++);
        _cursor_x += FONT_WIDTH + FONT_SPACING_HOR;
    }
}
     260:	50b2                	lw	ra,44(sp)
     262:	5422                	lw	s0,40(sp)
     264:	5492                	lw	s1,36(sp)
     266:	5902                	lw	s2,32(sp)
     268:	49f2                	lw	s3,28(sp)
     26a:	4a62                	lw	s4,24(sp)
     26c:	4ad2                	lw	s5,20(sp)
     26e:	4b42                	lw	s6,16(sp)
     270:	4bb2                	lw	s7,12(sp)
     272:	4c22                	lw	s8,8(sp)
     274:	4c92                	lw	s9,4(sp)
     276:	4d02                	lw	s10,0(sp)
     278:	6145                	addi	sp,sp,48
     27a:	8082                	ret
        tft_print_char(*str++);
     27c:	03478633          	mul	a2,a5,s4
                _buffer[sz++] = _bg_color >> 8;
     280:	c0c1d503          	lhu	a0,-1012(gp) # 20000008 <_bg_color>
                _buffer[sz++] = _color >> 8;
     284:	c041d803          	lhu	a6,-1020(gp) # 20000000 <_color>
        tft_print_char(*str++);
     288:	0405                	addi	s0,s0,1
                _buffer[sz++] = _bg_color;
     28a:	0ff57f13          	zext.b	t5,a0
                _buffer[sz++] = _color;
     28e:	0ff87e93          	zext.b	t4,a6
     292:	4701                	li	a4,0
                _buffer[sz++] = _bg_color >> 8;
     294:	8121                	srli	a0,a0,0x8
                _buffer[sz++] = _color >> 8;
     296:	00885813          	srli	a6,a6,0x8
    for (uint8_t i = 0; i < FONT_HEIGHT; i++)
     29a:	4f9d                	li	t6,7
     29c:	037707b3          	mul	a5,a4,s7
     2a0:	00ec1e33          	sll	t3,s8,a4
            if ((*(start + j)) & (0x01 << i))
     2a4:	4581                	li	a1,0
     2a6:	07c2                	slli	a5,a5,0x10
     2a8:	83c1                	srli	a5,a5,0x10
     2aa:	00b606b3          	add	a3,a2,a1
     2ae:	194c8293          	addi	t0,s9,404 # 3194 <font>
     2b2:	9696                	add	a3,a3,t0
     2b4:	0006c683          	lbu	a3,0(a3) # 40020000 <_eusrstack+0x2001b000>
                _buffer[sz++] = _color >> 8;
     2b8:	00178313          	addi	t1,a5,1
     2bc:	88be                	mv	a7,a5
                _buffer[sz++] = _color;
     2be:	0789                	addi	a5,a5,2
                _buffer[sz++] = _color >> 8;
     2c0:	0342                	slli	t1,t1,0x10
                _buffer[sz++] = _color;
     2c2:	07c2                	slli	a5,a5,0x10
            if ((*(start + j)) & (0x01 << i))
     2c4:	01c6f6b3          	and	a3,a3,t3
                _buffer[sz++] = _color >> 8;
     2c8:	01035313          	srli	t1,t1,0x10
                _buffer[sz++] = _color;
     2cc:	83c1                	srli	a5,a5,0x10
            if ((*(start + j)) & (0x01 << i))
     2ce:	cead                	beqz	a3,348 <tft_print+0x112>
                _buffer[sz++] = _color >> 8;
     2d0:	83c2                	mv	t2,a6
                _buffer[sz++] = _color;
     2d2:	82f6                	mv	t0,t4
                _buffer[sz++] = _color >> 8;
     2d4:	c1418693          	addi	a3,gp,-1004 # 20000010 <_buffer>
     2d8:	98b6                	add	a7,a7,a3
     2da:	00788023          	sb	t2,0(a7)
                _buffer[sz++] = _color;
     2de:	969a                	add	a3,a3,t1
     2e0:	00568023          	sb	t0,0(a3)
        for (uint8_t j = 0; j < FONT_WIDTH; j++)
     2e4:	0585                	addi	a1,a1,1
     2e6:	fd4592e3          	bne	a1,s4,2aa <tft_print+0x74>
    for (uint8_t i = 0; i < FONT_HEIGHT; i++)
     2ea:	0705                	addi	a4,a4,1
     2ec:	fbf718e3          	bne	a4,t6,29c <tft_print+0x66>
    START_WRITE();
     2f0:	40011937          	lui	s2,0x40011
     2f4:	01492783          	lw	a5,20(s2) # 40011014 <_eusrstack+0x2000c014>
    tft_set_window(_cursor_x, _cursor_y, _cursor_x + FONT_WIDTH - 1, _cursor_y + FONT_HEIGHT - 1);
     2f8:	c101d483          	lhu	s1,-1008(gp) # 2000000c <_cursor_x>
    START_WRITE();
     2fc:	0087e793          	ori	a5,a5,8
     300:	00f92a23          	sw	a5,20(s2)
    tft_set_window(_cursor_x, _cursor_y, _cursor_x + FONT_WIDTH - 1, _cursor_y + FONT_HEIGHT - 1);
     304:	c0e1d583          	lhu	a1,-1010(gp) # 2000000a <_cursor_y>
     308:	00448613          	addi	a2,s1,4
     30c:	0642                	slli	a2,a2,0x10
     30e:	00658693          	addi	a3,a1,6
     312:	06c2                	slli	a3,a3,0x10
     314:	8526                	mv	a0,s1
     316:	82c1                	srli	a3,a3,0x10
     318:	8241                	srli	a2,a2,0x10
     31a:	3de9                	jal	1f4 <tft_set_window>
    DATA_MODE();
     31c:	80090793          	addi	a5,s2,-2048
     320:	4b98                	lw	a4,16(a5)
    SPI_send_DMA(_buffer, sz, 1);
     322:	4605                	li	a2,1
     324:	04600593          	li	a1,70
    DATA_MODE();
     328:	04076713          	ori	a4,a4,64
     32c:	cb98                	sw	a4,16(a5)
    SPI_send_DMA(_buffer, sz, 1);
     32e:	c1418513          	addi	a0,gp,-1004 # 20000010 <_buffer>
     332:	3d25                	jal	16a <SPI_send_DMA>
    END_WRITE();
     334:	01092783          	lw	a5,16(s2)
        _cursor_x += FONT_WIDTH + FONT_SPACING_HOR;
     338:	0499                	addi	s1,s1,6
    END_WRITE();
     33a:	0087e793          	ori	a5,a5,8
     33e:	00f92823          	sw	a5,16(s2)
        _cursor_x += FONT_WIDTH + FONT_SPACING_HOR;
     342:	c0919823          	sh	s1,-1008(gp) # 2000000c <_cursor_x>
     346:	bf11                	j	25a <tft_print+0x24>
                _buffer[sz++] = _bg_color >> 8;
     348:	83aa                	mv	t2,a0
     34a:	82fa                	mv	t0,t5
     34c:	b761                	j	2d4 <tft_print+0x9e>

0000034e <tft_fill_rect.constprop.0>:
/// \param y Start Y coordinate
/// \param width Width
/// \param height Height
/// \param color Fill Color
/// \details DMA accelerated.
void tft_fill_rect(uint16_t x, uint16_t y, uint16_t width, uint16_t height, uint16_t color)
     34e:	1101                	addi	sp,sp,-32
{
    x += ST7789_X_OFFSET;
     350:	02850513          	addi	a0,a0,40
    y += ST7789_Y_OFFSET;
     354:	03558593          	addi	a1,a1,53
void tft_fill_rect(uint16_t x, uint16_t y, uint16_t width, uint16_t height, uint16_t color)
     358:	c64e                	sw	s3,12(sp)
    x += ST7789_X_OFFSET;
     35a:	0542                	slli	a0,a0,0x10
    y += ST7789_Y_OFFSET;
     35c:	05c2                	slli	a1,a1,0x10
void tft_fill_rect(uint16_t x, uint16_t y, uint16_t width, uint16_t height, uint16_t color)
     35e:	cc22                	sw	s0,24(sp)
     360:	c84a                	sw	s2,16(sp)
     362:	ce06                	sw	ra,28(sp)
     364:	ca26                	sw	s1,20(sp)
     366:	8936                	mv	s2,a3
    x += ST7789_X_OFFSET;
     368:	8141                	srli	a0,a0,0x10
    y += ST7789_Y_OFFSET;
     36a:	81c1                	srli	a1,a1,0x10
     36c:	c1418793          	addi	a5,gp,-1004 # 20000010 <_buffer>

    uint16_t sz = 0;
    for (uint16_t x = 0; x < width; x++)
     370:	4401                	li	s0,0
     372:	04c41c63          	bne	s0,a2,3ca <tft_fill_rect.constprop.0+0x7c>
    {
        _buffer[sz++] = color >> 8;
        _buffer[sz++] = color;
    }

    START_WRITE();
     376:	400114b7          	lui	s1,0x40011
     37a:	48dc                	lw	a5,20(s1)
    tft_set_window(x, y, x + width - 1, y + height - 1);
     37c:	fff90693          	addi	a3,s2,-1
     380:	fff40613          	addi	a2,s0,-1
     384:	96ae                	add	a3,a3,a1
     386:	962a                	add	a2,a2,a0
    START_WRITE();
     388:	0087e793          	ori	a5,a5,8
    tft_set_window(x, y, x + width - 1, y + height - 1);
     38c:	06c2                	slli	a3,a3,0x10
     38e:	0642                	slli	a2,a2,0x10
    START_WRITE();
     390:	c8dc                	sw	a5,20(s1)
    tft_set_window(x, y, x + width - 1, y + height - 1);
     392:	82c1                	srli	a3,a3,0x10
     394:	8241                	srli	a2,a2,0x10
     396:	3db9                	jal	1f4 <tft_set_window>
    DATA_MODE();
     398:	80048793          	addi	a5,s1,-2048 # 40010800 <_eusrstack+0x2000b800>
     39c:	4b98                	lw	a4,16(a5)
    SPI_send_DMA(_buffer, sz, height);
     39e:	00141593          	slli	a1,s0,0x1
     3a2:	05c2                	slli	a1,a1,0x10
    DATA_MODE();
     3a4:	04076713          	ori	a4,a4,64
     3a8:	cb98                	sw	a4,16(a5)
    SPI_send_DMA(_buffer, sz, height);
     3aa:	864a                	mv	a2,s2
     3ac:	c1418513          	addi	a0,gp,-1004 # 20000010 <_buffer>
     3b0:	81c1                	srli	a1,a1,0x10
     3b2:	3b65                	jal	16a <SPI_send_DMA>
    END_WRITE();
     3b4:	489c                	lw	a5,16(s1)
}
     3b6:	40f2                	lw	ra,28(sp)
     3b8:	4462                	lw	s0,24(sp)
    END_WRITE();
     3ba:	0087e793          	ori	a5,a5,8
     3be:	c89c                	sw	a5,16(s1)
}
     3c0:	4942                	lw	s2,16(sp)
     3c2:	44d2                	lw	s1,20(sp)
     3c4:	49b2                	lw	s3,12(sp)
     3c6:	6105                	addi	sp,sp,32
     3c8:	8082                	ret
    for (uint16_t x = 0; x < width; x++)
     3ca:	0405                	addi	s0,s0,1
     3cc:	0442                	slli	s0,s0,0x10
        _buffer[sz++] = color >> 8;
     3ce:	00078023          	sb	zero,0(a5)
        _buffer[sz++] = color;
     3d2:	000780a3          	sb	zero,1(a5)
    for (uint16_t x = 0; x < width; x++)
     3d6:	8041                	srli	s0,s0,0x10
     3d8:	0789                	addi	a5,a5,2
     3da:	bf61                	j	372 <tft_fill_rect.constprop.0+0x24>

000003dc <handle_reset>:
	asm volatile( "\n\
     3dc:	20000197          	auipc	gp,0x20000
     3e0:	02018193          	addi	gp,gp,32 # 200003fc <__global_pointer$>
     3e4:	20005117          	auipc	sp,0x20005
     3e8:	c1c10113          	addi	sp,sp,-996 # 20005000 <_eusrstack>
     3ec:	6509                	lui	a0,0x2
     3ee:	88050513          	addi	a0,a0,-1920 # 1880 <bitmap_mario_3+0x484>
     3f2:	30051073          	csrw	mstatus,a0
     3f6:	468d                	li	a3,3
     3f8:	00000517          	auipc	a0,0x0
     3fc:	c0850513          	addi	a0,a0,-1016 # 0 <InterruptVector>
     400:	8d55                	or	a0,a0,a3
     402:	30551073          	csrw	mtvec,a0
asm volatile(
     406:	c0c18513          	addi	a0,gp,-1012 # 20000008 <_bg_color>
     40a:	e0018593          	addi	a1,gp,-512 # 200001fc <_ebss>
     40e:	4601                	li	a2,0
     410:	00b55663          	bge	a0,a1,41c <handle_reset+0x40>
     414:	c110                	sw	a2,0(a0)
     416:	0511                	addi	a0,a0,4
     418:	feb54ee3          	blt	a0,a1,414 <handle_reset+0x38>
     41c:	00003517          	auipc	a0,0x3
     420:	07050513          	addi	a0,a0,112 # 348c <_data_lma>
     424:	c0418593          	addi	a1,gp,-1020 # 20000000 <_color>
     428:	c0c18613          	addi	a2,gp,-1012 # 20000008 <_bg_color>
     42c:	00c58863          	beq	a1,a2,43c <handle_reset+0x60>
     430:	4114                	lw	a3,0(a0)
     432:	c194                	sw	a3,0(a1)
     434:	0511                	addi	a0,a0,4
     436:	0591                	addi	a1,a1,4
     438:	fec59ae3          	bne	a1,a2,42c <handle_reset+0x50>
	SysTick->CTLR = 1;
     43c:	e000f7b7          	lui	a5,0xe000f
     440:	4705                	li	a4,1
     442:	c398                	sw	a4,0(a5)
asm volatile(
     444:	4dc00793          	li	a5,1244
     448:	34179073          	csrw	mepc,a5
     44c:	30200073          	mret

00000450 <ADC1_2_IRQHandler>:

// Return the Machine Exception Program Register (MEPC)
static inline uint32_t __get_MEPC(void)
{
	uint32_t result;
	__ASM volatile( ADD_ARCH_ZICSR "csrr %0," "mepc" : "=r"(result));
     450:	34102573          	csrr	a0,mepc
	PrintHex( __get_MEPC() ); // "addr2line -e debugprintfdemo.elf 0x000007e6" ---> debugprintfdemo.c:45
     454:	3171                	jal	e0 <PrintHex>
	__ASM volatile( ADD_ARCH_ZICSR "csrr %0, mstatus": "=r"(result) );
     456:	30002573          	csrr	a0,mstatus
	PrintHex( __get_MSTATUS() );
     45a:	3159                	jal	e0 <PrintHex>

// Return the Machine Trap Value Register (MTVAL)
static inline uint32_t __get_MTVAL(void)
{
	uint32_t result;
	__ASM volatile( ADD_ARCH_ZICSR "csrr %0," "mtval" : "=r" (result) );
     45c:	34302573          	csrr	a0,mtval
	PrintHex( __get_MTVAL() );
     460:	3141                	jal	e0 <PrintHex>
	__ASM volatile( ADD_ARCH_ZICSR "csrr %0," "mcause": "=r"(result));
     462:	34202573          	csrr	a0,mcause
	PrintHex( __get_MCAUSE() );
     466:	39ad                	jal	e0 <PrintHex>
	while( (*DMDATA0) & 0x80 );
     468:	e00007b7          	lui	a5,0xe0000
     46c:	38078793          	addi	a5,a5,896 # e0000380 <_eusrstack+0xbfffb380>
     470:	4398                	lw	a4,0(a5)
     472:	08077713          	andi	a4,a4,128
     476:	ff6d                	bnez	a4,470 <ADC1_2_IRQHandler+0x20>
	*DMDATA0 = 0x0a85;
     478:	6705                	lui	a4,0x1
     47a:	a8570713          	addi	a4,a4,-1403 # a85 <bitmap_mario_4+0x1c9>
     47e:	c398                	sw	a4,0(a5)
	while( (*DMDATA0) & 0x80 );
     480:	e00007b7          	lui	a5,0xe0000
     484:	38078793          	addi	a5,a5,896 # e0000380 <_eusrstack+0xbfffb380>
     488:	4398                	lw	a4,0(a5)
     48a:	08077713          	andi	a4,a4,128
     48e:	ff6d                	bnez	a4,488 <ADC1_2_IRQHandler+0x38>
	*DMDATA0 = 0xaaaaaa83;
     490:	aaaab737          	lui	a4,0xaaaab
     494:	a8370713          	addi	a4,a4,-1405 # aaaaaa83 <_eusrstack+0x8aaa5a83>
     498:	c398                	sw	a4,0(a5)
	asm volatile( "1: j 1b" );
     49a:	a001                	j	49a <ADC1_2_IRQHandler+0x4a>

0000049c <NMI_Handler>:
	RCC->INTR |= RCC_CSSC;	// clear the clock security int flag
     49c:	40021737          	lui	a4,0x40021
     4a0:	471c                	lw	a5,8(a4)
     4a2:	008006b7          	lui	a3,0x800
     4a6:	8fd5                	or	a5,a5,a3
     4a8:	c71c                	sw	a5,8(a4)

000004aa <SystemInit>:
		FLASH->ACTLR = FLASH_ACTLR_LATENCY_1;
	#else
		FLASH->ACTLR = FLASH_ACTLR_LATENCY_0;
	#endif
#elif defined(CH32X03x)
	FLASH->ACTLR = FLASH_ACTLR_LATENCY_2;                   // +2 Cycle Latency (Recommended per TRM)
     4aa:	400227b7          	lui	a5,0x40022
     4ae:	4709                	li	a4,2
     4b0:	c398                	sw	a4,0(a5)
	#endif
	#if defined(FUNCONF_USE_PLL) && FUNCONF_USE_PLL
		RCC->CFGR0 = BASE_CFGR0;
		RCC->CTLR  = BASE_CTLR | RCC_HSION | RCC_PLLON; 			// Use HSI, enable PLL.
	#else
		RCC->CFGR0 = RCC_HPRE_DIV1;                               	// PLLCLK = HCLK = SYSCLK = APB1
     4b2:	400217b7          	lui	a5,0x40021
		RCC->CTLR  = BASE_CTLR | RCC_HSION;     					// Use HSI, Only.
     4b6:	00080737          	lui	a4,0x80
		RCC->CFGR0 = RCC_HPRE_DIV1;                               	// PLLCLK = HCLK = SYSCLK = APB1
     4ba:	0007a223          	sw	zero,4(a5) # 40021004 <_eusrstack+0x2001c004>
		RCC->CTLR  = BASE_CTLR | RCC_HSION;     					// Use HSI, Only.
     4be:	08170713          	addi	a4,a4,129 # 80081 <_data_lma+0x7cbf5>
     4c2:	c398                	sw	a4,0(a5)
		FLASH->ACTLR = FLASH_ACTLR_LATENCY_0;
	#endif
#endif

#ifndef CH5xx
	RCC->INTR  = 0x009F0000;                               // Clear PLL, CSSC, HSE, HSI and LSI ready flags.
     4c4:	009f0737          	lui	a4,0x9f0
     4c8:	c798                	sw	a4,8(a5)
	*DMDATA1 = 0x00;
     4ca:	e00007b7          	lui	a5,0xe0000
     4ce:	3807a223          	sw	zero,900(a5) # e0000384 <_eusrstack+0xbfffb384>
	*DMDATA0 = 0x80;
     4d2:	08000713          	li	a4,128
     4d6:	38e7a023          	sw	a4,896(a5)
	SetupDebugPrintf();
#endif
#if defined(FUNCONF_SUPPORT_CONSTRUCTORS) && FUNCONF_SUPPORT_CONSTRUCTORS
	CallConstructors();
#endif
}
     4da:	8082                	ret

000004dc <main>:
};



int main()
{
     4dc:	715d                	addi	sp,sp,-80
     4de:	c686                	sw	ra,76(sp)
     4e0:	c4a2                	sw	s0,72(sp)
     4e2:	c2a6                	sw	s1,68(sp)
     4e4:	c0ca                	sw	s2,64(sp)
     4e6:	de4e                	sw	s3,60(sp)
     4e8:	dc52                	sw	s4,56(sp)
     4ea:	da56                	sw	s5,52(sp)
     4ec:	d85a                	sw	s6,48(sp)
     4ee:	d65e                	sw	s7,44(sp)
     4f0:	d462                	sw	s8,40(sp)
     4f2:	ce6e                	sw	s11,28(sp)
     4f4:	d266                	sw	s9,36(sp)
     4f6:	d06a                	sw	s10,32(sp)
	SystemInit();
     4f8:	3f4d                	jal	4aa <SystemInit>
	Delay_Ms(100);
     4fa:	00092537          	lui	a0,0x92
     4fe:	7c050513          	addi	a0,a0,1984 # 927c0 <_data_lma+0x8f334>
     502:	391d                	jal	138 <DelaySysTick>
    RCC->APB2PCENR |= RCC_APB2Periph_GPIOC | RCC_APB2Periph_GPIOA | RCC_APB2Periph_SPI1;
     504:	40021737          	lui	a4,0x40021
     508:	4f1c                	lw	a5,24(a4)
     50a:	6685                	lui	a3,0x1
     50c:	06d1                	addi	a3,a3,20 # 1014 <bitmap_mario_4+0x758>
     50e:	8fd5                	or	a5,a5,a3
     510:	cf1c                	sw	a5,24(a4)
    GPIOC->CFGLR &= ~(0xf << (PIN_CS << 2));
     512:	400114b7          	lui	s1,0x40011
     516:	409c                	lw	a5,0(s1)
     518:	76c5                	lui	a3,0xffff1
     51a:	16fd                	addi	a3,a3,-1 # ffff0fff <_eusrstack+0xdffebfff>
     51c:	8ff5                	and	a5,a5,a3
     51e:	c09c                	sw	a5,0(s1)
    GPIOC->CFGLR |= (GPIO_CNF_OUT_PP | GPIO_Speed_50MHz) << (PIN_CS << 2);
     520:	409c                	lw	a5,0(s1)
     522:	668d                	lui	a3,0x3
    GPIOA->CFGLR &= ~(0xf << (PIN_RESET << 2));
     524:	80048413          	addi	s0,s1,-2048 # 40010800 <_eusrstack+0x2000b800>
    GPIOC->CFGLR |= (GPIO_CNF_OUT_PP | GPIO_Speed_50MHz) << (PIN_CS << 2);
     528:	8fd5                	or	a5,a5,a3
     52a:	c09c                	sw	a5,0(s1)
    GPIOA->CFGLR &= ~(0xf << (PIN_RESET << 2));
     52c:	401c                	lw	a5,0(s0)
    GPIOA->CFGLR &= ~(0xf << (PIN_DC << 2));
     52e:	f10006b7          	lui	a3,0xf1000
     532:	16fd                	addi	a3,a3,-1 # f0ffffff <_eusrstack+0xd0ffafff>
    GPIOA->CFGLR &= ~(0xf << (PIN_RESET << 2));
     534:	9bc1                	andi	a5,a5,-16
     536:	c01c                	sw	a5,0(s0)
    GPIOA->CFGLR |= (GPIO_CNF_OUT_PP | GPIO_Speed_50MHz) << (PIN_RESET << 2);
     538:	401c                	lw	a5,0(s0)
    Delay_Ms(1);
     53a:	6505                	lui	a0,0x1
     53c:	77050513          	addi	a0,a0,1904 # 1770 <bitmap_mario_3+0x374>
    GPIOA->CFGLR |= (GPIO_CNF_OUT_PP | GPIO_Speed_50MHz) << (PIN_RESET << 2);
     540:	0037e793          	ori	a5,a5,3
     544:	c01c                	sw	a5,0(s0)
    GPIOA->CFGLR &= ~(0xf << (PIN_DC << 2));
     546:	401c                	lw	a5,0(s0)

	  tft_init();

    tft_set_background_color(BLACK);
    tft_fill_rect(0, 0, ST7789_WIDTH, ST7789_HEIGHT, BLACK);
     548:	4c01                	li	s8,0

    uint8_t          frame = 0;
    uint8_t          shift = 0;
     54a:	4b81                	li	s7,0
     54c:	8ff5                	and	a5,a5,a3
     54e:	c01c                	sw	a5,0(s0)
    GPIOA->CFGLR |= (GPIO_CNF_OUT_PP | GPIO_Speed_50MHz) << (PIN_DC << 2);
     550:	401c                	lw	a5,0(s0)
     552:	030006b7          	lui	a3,0x3000
    uint8_t          frame = 0;
     556:	4901                	li	s2,0
     558:	8fd5                	or	a5,a5,a3
     55a:	c01c                	sw	a5,0(s0)
    GPIOA->CFGLR &= ~(0xf << (SPI_SCLK << 2));
     55c:	401c                	lw	a5,0(s0)
     55e:	ff1006b7          	lui	a3,0xff100
     562:	16fd                	addi	a3,a3,-1 # ff0fffff <_eusrstack+0xdf0fafff>
     564:	8ff5                	and	a5,a5,a3
     566:	c01c                	sw	a5,0(s0)
    GPIOA->CFGLR |= (GPIO_CNF_OUT_PP_AF | GPIO_Speed_50MHz) << (SPI_SCLK << 2);
     568:	401c                	lw	a5,0(s0)
     56a:	00b006b7          	lui	a3,0xb00
     56e:	8fd5                	or	a5,a5,a3
     570:	c01c                	sw	a5,0(s0)
    GPIOA->CFGLR &= ~(0xf << (SPI_MOSI << 2));
     572:	401c                	lw	a5,0(s0)
    GPIOA->CFGLR |= (GPIO_CNF_OUT_PP_AF | GPIO_Speed_50MHz) << (SPI_MOSI << 2);
     574:	b00006b7          	lui	a3,0xb0000
    _color = color;
     578:	80000a93          	li	s5,-2048
    GPIOA->CFGLR &= ~(0xf << (SPI_MOSI << 2));
     57c:	0792                	slli	a5,a5,0x4
     57e:	8391                	srli	a5,a5,0x4
     580:	c01c                	sw	a5,0(s0)
    GPIOA->CFGLR |= (GPIO_CNF_OUT_PP_AF | GPIO_Speed_50MHz) << (SPI_MOSI << 2);
     582:	401c                	lw	a5,0(s0)
    _cursor_x = x + ST7789_X_OFFSET;
     584:	0d600b13          	li	s6,214
    uint8_t     position  = 11;
     588:	4a2d                	li	s4,11
    GPIOA->CFGLR |= (GPIO_CNF_OUT_PP_AF | GPIO_Speed_50MHz) << (SPI_MOSI << 2);
     58a:	8fd5                	or	a5,a5,a3
    SPI1->CTLR1 = SPI_CPHA_2Edge             // Bit 0     - Clock PHAse
     58c:	76f1                	lui	a3,0xffffc
    GPIOA->CFGLR |= (GPIO_CNF_OUT_PP_AF | GPIO_Speed_50MHz) << (SPI_MOSI << 2);
     58e:	c01c                	sw	a5,0(s0)
    SPI1->CTLR1 = SPI_CPHA_2Edge             // Bit 0     - Clock PHAse
     590:	30768693          	addi	a3,a3,775 # ffffc307 <_eusrstack+0xdfff7307>
     594:	400137b7          	lui	a5,0x40013
     598:	00d79023          	sh	a3,0(a5) # 40013000 <_eusrstack+0x2000e000>
    SPI1->CRCR = 7;                          // CRC
     59c:	469d                	li	a3,7
     59e:	00d79823          	sh	a3,16(a5)
    SPI1->CTLR2 |= SPI_I2S_DMAReq_Tx;        // Configure SPI DMA Transfer
     5a2:	0047d683          	lhu	a3,4(a5)
        str[--position] = num % 10 + '0';
     5a6:	4da9                	li	s11,10
    SPI1->CTLR2 |= SPI_I2S_DMAReq_Tx;        // Configure SPI DMA Transfer
     5a8:	0026e693          	ori	a3,a3,2
     5ac:	00d79223          	sh	a3,4(a5)
    SPI1->CTLR1 |= CTLR1_SPE_Set;            // Bit 6     - Enable SPI
     5b0:	0007d683          	lhu	a3,0(a5)
     5b4:	0406e693          	ori	a3,a3,64
     5b8:	00d79023          	sh	a3,0(a5)
    RCC->AHBPCENR |= RCC_AHBPeriph_DMA1;
     5bc:	4b5c                	lw	a5,20(a4)
     5be:	0017e793          	ori	a5,a5,1
     5c2:	cb5c                	sw	a5,20(a4)
    DMA1_Channel3->CFGR = DMA_DIR_PeripheralDST          // Bit 4     - Read from memory
     5c4:	670d                	lui	a4,0x3
     5c6:	400207b7          	lui	a5,0x40020
     5ca:	0b070713          	addi	a4,a4,176 # 30b0 <st7789.c.344d8640+0x3f7>
     5ce:	db98                	sw	a4,48(a5)
    DMA1_Channel3->PADDR = (uint32_t)&SPI1->DATAR;
     5d0:	40013737          	lui	a4,0x40013
     5d4:	0731                	addi	a4,a4,12 # 4001300c <_eusrstack+0x2000e00c>
     5d6:	df98                	sw	a4,56(a5)
    RESET_HIGH();
     5d8:	481c                	lw	a5,16(s0)
     5da:	0017e793          	ori	a5,a5,1
     5de:	c81c                	sw	a5,16(s0)
    Delay_Ms(1);
     5e0:	3ea1                	jal	138 <DelaySysTick>
    RESET_LOW();
     5e2:	485c                	lw	a5,20(s0)
    Delay_Ms(1);  // TRW >= 10us
     5e4:	6505                	lui	a0,0x1
     5e6:	77050513          	addi	a0,a0,1904 # 1770 <bitmap_mario_3+0x374>
    RESET_LOW();
     5ea:	0017e793          	ori	a5,a5,1
     5ee:	c85c                	sw	a5,20(s0)
    Delay_Ms(1);  // TRW >= 10us
     5f0:	36a1                	jal	138 <DelaySysTick>
    RESET_HIGH();
     5f2:	481c                	lw	a5,16(s0)
    Delay_Ms(ST7789_RST_DELAY);  // TRT <= 120ms
     5f4:	000b0537          	lui	a0,0xb0
     5f8:	c8050513          	addi	a0,a0,-896 # afc80 <_data_lma+0xac7f4>
    RESET_HIGH();
     5fc:	0017e793          	ori	a5,a5,1
     600:	c81c                	sw	a5,16(s0)
    Delay_Ms(ST7789_RST_DELAY);  // TRT <= 120ms
     602:	3e1d                	jal	138 <DelaySysTick>
    START_WRITE();
     604:	48dc                	lw	a5,20(s1)
    write_command_8(ST7789_SLPOUT);
     606:	4545                	li	a0,17
    START_WRITE();
     608:	0087e793          	ori	a5,a5,8
     60c:	c8dc                	sw	a5,20(s1)
    write_command_8(ST7789_SLPOUT);
     60e:	3675                	jal	1ba <write_command_8>
    Delay_Ms(ST7789_SLPOUT_DELAY);
     610:	000b0537          	lui	a0,0xb0
     614:	c8050513          	addi	a0,a0,-896 # afc80 <_data_lma+0xac7f4>
     618:	3605                	jal	138 <DelaySysTick>
    write_command_8(ST7789_COLMOD);
     61a:	03a00513          	li	a0,58
     61e:	3e71                	jal	1ba <write_command_8>
    DATA_MODE();
     620:	481c                	lw	a5,16(s0)
    SPI_send(data);
     622:	05500513          	li	a0,85
    DATA_MODE();
     626:	0407e793          	ori	a5,a5,64
     62a:	c81c                	sw	a5,16(s0)
    SPI_send(data);
     62c:	3eb5                	jal	1a8 <SPI_send>
    write_command_8(ST7789_MADCTL);
     62e:	03600513          	li	a0,54
     632:	3661                	jal	1ba <write_command_8>
    DATA_MODE();
     634:	481c                	lw	a5,16(s0)
    SPI_send(data);
     636:	06000513          	li	a0,96
    DATA_MODE();
     63a:	0407e793          	ori	a5,a5,64
     63e:	c81c                	sw	a5,16(s0)
    SPI_send(data);
     640:	36a5                	jal	1a8 <SPI_send>
    write_command_8(ST7789_INVON);
     642:	02100513          	li	a0,33
     646:	3e95                	jal	1ba <write_command_8>
    write_command_8(ST7789_DISPON);
     648:	02900513          	li	a0,41
     64c:	36bd                	jal	1ba <write_command_8>
    END_WRITE();
     64e:	489c                	lw	a5,16(s1)
    tft_fill_rect(0, 0, ST7789_WIDTH, ST7789_HEIGHT, BLACK);
     650:	08700693          	li	a3,135
     654:	0f000613          	li	a2,240
     658:	0087e793          	ori	a5,a5,8
     65c:	c89c                	sw	a5,16(s1)
     65e:	4581                	li	a1,0
     660:	4501                	li	a0,0
    _bg_color = color;
     662:	c0019623          	sh	zero,-1012(gp) # 20000008 <_bg_color>
     666:	31e5                	jal	34e <tft_fill_rect.constprop.0>

    while (1)
    {
        tft_set_color(RED);
        tft_set_cursor(174, 2);
        tft_print("Go Mario!!!");
     668:	6505                	lui	a0,0x1
    _cursor_y = y + ST7789_Y_OFFSET;
     66a:	03700793          	li	a5,55
     66e:	87050513          	addi	a0,a0,-1936 # 870 <main+0x394>
     672:	c0f19723          	sh	a5,-1010(gp) # 2000000a <_cursor_y>
    _color = color;
     676:	c1519223          	sh	s5,-1020(gp) # 20000000 <_color>
    _cursor_x = x + ST7789_X_OFFSET;
     67a:	c1619823          	sh	s6,-1008(gp) # 2000000c <_cursor_x>
     67e:	3e65                	jal	236 <tft_print>
    _color = color;
     680:	47fd                	li	a5,31
        tft_set_color(BLUE);
        tft_set_cursor(204, 12);
        tft_print("Run!!!");
     682:	6505                	lui	a0,0x1
     684:	c0f19223          	sh	a5,-1020(gp) # 20000000 <_color>
    _cursor_x = x + ST7789_X_OFFSET;
     688:	0f400c93          	li	s9,244
    _cursor_y = y + ST7789_Y_OFFSET;
     68c:	04100793          	li	a5,65
     690:	87c50513          	addi	a0,a0,-1924 # 87c <main+0x3a0>
     694:	c0f19723          	sh	a5,-1010(gp) # 2000000a <_cursor_y>
    _cursor_x = x + ST7789_X_OFFSET;
     698:	c1919823          	sh	s9,-1008(gp) # 2000000c <_cursor_x>
     69c:	3e69                	jal	236 <tft_print>
    _color = color;
     69e:	d2000793          	li	a5,-736
        tft_set_color(ORANGE);
        tft_set_cursor(162, 22);
        tft_print("Hit Bricks!!!");
     6a2:	6505                	lui	a0,0x1
     6a4:	c0f19223          	sh	a5,-1020(gp) # 20000000 <_color>
    _cursor_x = x + ST7789_X_OFFSET;
     6a8:	0ca00d13          	li	s10,202
    _cursor_y = y + ST7789_Y_OFFSET;
     6ac:	04b00793          	li	a5,75
     6b0:	88450513          	addi	a0,a0,-1916 # 884 <main+0x3a8>
     6b4:	c0f19723          	sh	a5,-1010(gp) # 2000000a <_cursor_y>
    _cursor_x = x + ST7789_X_OFFSET;
     6b8:	c1a19823          	sh	s10,-1008(gp) # 2000000c <_cursor_x>
     6bc:	3ead                	jal	236 <tft_print>
    _color = color;
     6be:	67a1                	lui	a5,0x8
     6c0:	80f78793          	addi	a5,a5,-2033 # 780f <_data_lma+0x4383>
        tft_set_color(PURPLE);
        tft_set_cursor(162, 32);
        tft_print("Beat Monsters");
     6c4:	6505                	lui	a0,0x1
     6c6:	c0f19223          	sh	a5,-1020(gp) # 20000000 <_color>
     6ca:	89450513          	addi	a0,a0,-1900 # 894 <main+0x3b8>
    _cursor_y = y + ST7789_Y_OFFSET;
     6ce:	05500793          	li	a5,85
     6d2:	c0f19723          	sh	a5,-1010(gp) # 2000000a <_cursor_y>
    _cursor_x = x + ST7789_X_OFFSET;
     6d6:	c1a19823          	sh	s10,-1008(gp) # 2000000c <_cursor_x>
     6da:	3eb1                	jal	236 <tft_print>
    _color = color;
     6dc:	c1800793          	li	a5,-1000
     6e0:	c0f19223          	sh	a5,-1020(gp) # 20000000 <_color>
        tft_set_color(PINK);
        tft_set_cursor(150, 42);
        tft_print("Rescue Princess");
     6e4:	6505                	lui	a0,0x1
    _cursor_x = x + ST7789_X_OFFSET;
     6e6:	0be00793          	li	a5,190
     6ea:	c0f19823          	sh	a5,-1008(gp) # 2000000c <_cursor_x>
     6ee:	8a450513          	addi	a0,a0,-1884 # 8a4 <main+0x3c8>
    _cursor_y = y + ST7789_Y_OFFSET;
     6f2:	05f00793          	li	a5,95
     6f6:	c0f19723          	sh	a5,-1010(gp) # 2000000a <_cursor_y>
     6fa:	3e35                	jal	236 <tft_print>
    _color = color;
     6fc:	57fd                	li	a5,-1
        tft_set_color(WHITE);
        tft_set_cursor(204, 128);
        tft_print("Frames");
     6fe:	6505                	lui	a0,0x1
     700:	c0f19223          	sh	a5,-1020(gp) # 20000000 <_color>
     704:	8b450513          	addi	a0,a0,-1868 # 8b4 <main+0x3d8>
    _cursor_y = y + ST7789_Y_OFFSET;
     708:	0b500793          	li	a5,181
     70c:	c0f19723          	sh	a5,-1010(gp) # 2000000a <_cursor_y>
    _cursor_x = x + ST7789_X_OFFSET;
     710:	c1919823          	sh	s9,-1008(gp) # 2000000c <_cursor_x>
     714:	360d                	jal	236 <tft_print>
     716:	0ac00793          	li	a5,172
     71a:	c0f19823          	sh	a5,-1008(gp) # 2000000c <_cursor_x>
    uint8_t     negative  = 0;
     71e:	4601                	li	a2,0
        tft_set_cursor(132, 128);
        tft_print_number(count++, 65);
     720:	87e2                	mv	a5,s8
    if (num < 0)
     722:	000c5563          	bgez	s8,72c <main+0x250>
        num      = -num;
     726:	418007b3          	neg	a5,s8
        negative = 1;
     72a:	4605                	li	a2,1
    str[position] = '\0';  // End of the string.
     72c:	df418693          	addi	a3,gp,-524 # 200001f0 <str.0>
     730:	000685a3          	sb	zero,11(a3)
    uint8_t     position  = 11;
     734:	452d                	li	a0,11
     736:	df418713          	addi	a4,gp,-524 # 200001f0 <str.0>
    while (num)
     73a:	10079c63          	bnez	a5,852 <main+0x376>
    if (position == 11)
     73e:	01451763          	bne	a0,s4,74c <main+0x270>
        str[--position] = '0';
     742:	03000793          	li	a5,48
     746:	00f70523          	sb	a5,10(a4)
     74a:	4529                	li	a0,10
    if (negative)
     74c:	ca11                	beqz	a2,760 <main+0x284>
        str[--position] = '-';
     74e:	157d                	addi	a0,a0,-1
     750:	0ff57513          	zext.b	a0,a0
     754:	00a707b3          	add	a5,a4,a0
     758:	02d00693          	li	a3,45
     75c:	00d78023          	sb	a3,0(a5)
    num_width = (11 - position) * (FONT_WIDTH + FONT_SPACING_HOR) - 1;
     760:	4699                	li	a3,6
     762:	40aa07b3          	sub	a5,s4,a0
     766:	02d787b3          	mul	a5,a5,a3
    if (width > num_width)
     76a:	04000693          	li	a3,64
    num_width = (11 - position) * (FONT_WIDTH + FONT_SPACING_HOR) - 1;
     76e:	17fd                	addi	a5,a5,-1
     770:	07c2                	slli	a5,a5,0x10
     772:	83c1                	srli	a5,a5,0x10
    if (width > num_width)
     774:	00f6e863          	bltu	a3,a5,784 <main+0x2a8>
        _cursor_x += width - num_width;
     778:	0ed00693          	li	a3,237
     77c:	40f687b3          	sub	a5,a3,a5
     780:	c0f19823          	sh	a5,-1008(gp) # 2000000c <_cursor_x>
    tft_print(&str[position]);
     784:	953a                	add	a0,a0,a4
     786:	3c45                	jal	236 <tft_print>

        p_frame = &frames[frame];

        tft_draw_bitmap(p_frame->pos_x + shift, p_frame->pos_y, p_frame->width, p_frame->height, p_frame->bitmap);
     788:	47b1                	li	a5,12
     78a:	02f907b3          	mul	a5,s2,a5
     78e:	640d                	lui	s0,0x3
     790:	41440413          	addi	s0,s0,1044 # 3414 <frames>
     794:	943e                	add	s0,s0,a5
     796:	4418                	lw	a4,8(s0)
     798:	00044783          	lbu	a5,0(s0)
     79c:	00144883          	lbu	a7,1(s0)
     7a0:	c23a                	sw	a4,4(sp)
/// \param bitmap Bitmap
void tft_draw_bitmap(uint16_t x, uint16_t y, uint16_t width, uint16_t height, const uint8_t* bitmap)
{
    x += ST7789_X_OFFSET;
    y += ST7789_Y_OFFSET;
    START_WRITE();
     7a2:	40011737          	lui	a4,0x40011
     7a6:	4b54                	lw	a3,20(a4)
     7a8:	97de                	add	a5,a5,s7
     7aa:	00244c83          	lbu	s9,2(s0)
     7ae:	00344d03          	lbu	s10,3(s0)
    x += ST7789_X_OFFSET;
     7b2:	02878513          	addi	a0,a5,40
     7b6:	c63e                	sw	a5,12(sp)
    y += ST7789_Y_OFFSET;
     7b8:	c446                	sw	a7,8(sp)
    START_WRITE();
     7ba:	0086e693          	ori	a3,a3,8
    x += ST7789_X_OFFSET;
     7be:	0542                	slli	a0,a0,0x10
    y += ST7789_Y_OFFSET;
     7c0:	03588593          	addi	a1,a7,53
    START_WRITE();
     7c4:	cb54                	sw	a3,20(a4)
    x += ST7789_X_OFFSET;
     7c6:	8141                	srli	a0,a0,0x10
    tft_set_window(x, y, x + width - 1, y + height - 1);
     7c8:	fffd0693          	addi	a3,s10,-1
     7cc:	fffc8613          	addi	a2,s9,-1
     7d0:	96ae                	add	a3,a3,a1
     7d2:	962a                	add	a2,a2,a0
     7d4:	06c2                	slli	a3,a3,0x10
     7d6:	0642                	slli	a2,a2,0x10
     7d8:	82c1                	srli	a3,a3,0x10
     7da:	8241                	srli	a2,a2,0x10
     7dc:	3c21                	jal	1f4 <tft_set_window>
    DATA_MODE();
    SPI_send_DMA(bitmap, width * height << 1, 1);
     7de:	03ac85b3          	mul	a1,s9,s10
    DATA_MODE();
     7e2:	400116b7          	lui	a3,0x40011
     7e6:	80068693          	addi	a3,a3,-2048 # 40010800 <_eusrstack+0x2000b800>
     7ea:	4a90                	lw	a2,16(a3)
    SPI_send_DMA(bitmap, width * height << 1, 1);
     7ec:	4512                	lw	a0,4(sp)
    DATA_MODE();
     7ee:	04066613          	ori	a2,a2,64
     7f2:	ca90                	sw	a2,16(a3)
    SPI_send_DMA(bitmap, width * height << 1, 1);
     7f4:	4605                	li	a2,1
     7f6:	0586                	slli	a1,a1,0x1
     7f8:	05c2                	slli	a1,a1,0x10
     7fa:	81c1                	srli	a1,a1,0x10
     7fc:	32bd                	jal	16a <SPI_send_DMA>
    END_WRITE();
     7fe:	40011737          	lui	a4,0x40011
     802:	4b14                	lw	a3,16(a4)
        Delay_Ms(p_frame->delay);
     804:	00444503          	lbu	a0,4(s0)
     808:	0086e693          	ori	a3,a3,8
     80c:	cb14                	sw	a3,16(a4)
     80e:	6705                	lui	a4,0x1
     810:	77070713          	addi	a4,a4,1904 # 1770 <bitmap_mario_3+0x374>
     814:	02e50533          	mul	a0,a0,a4
     818:	921ff0ef          	jal	138 <DelaySysTick>
        // TODO: only erase the delta between frames
        tft_fill_rect(p_frame->pos_x + shift, p_frame->pos_y, p_frame->width, p_frame->height, BLACK);
     81c:	47b2                	lw	a5,12(sp)
     81e:	48a2                	lw	a7,8(sp)
     820:	86ea                	mv	a3,s10
     822:	853e                	mv	a0,a5
     824:	8666                	mv	a2,s9
     826:	85c6                	mv	a1,a7
     828:	361d                	jal	34e <tft_fill_rect.constprop.0>

        if (frame % 9)
     82a:	47a5                	li	a5,9
     82c:	02f977b3          	remu	a5,s2,a5
     830:	cb89                	beqz	a5,842 <main+0x366>
        {
            shift += 4;
     832:	0b91                	addi	s7,s7,4
     834:	0ffbfb93          	zext.b	s7,s7
            if (shift >= 200)
     838:	0c700793          	li	a5,199
     83c:	0177f363          	bgeu	a5,s7,842 <main+0x366>
            {
                shift = 0;
     840:	4b81                	li	s7,0
            }
        }

        if (++frame >= 10)
     842:	0905                	addi	s2,s2,1
     844:	0ff97913          	zext.b	s2,s2
     848:	01b91363          	bne	s2,s11,84e <main+0x372>
        {
            frame = 0;
     84c:	4901                	li	s2,0
     84e:	0c05                	addi	s8,s8,1
     850:	bd21                	j	668 <main+0x18c>
        str[--position] = num % 10 + '0';
     852:	03b7e6b3          	rem	a3,a5,s11
     856:	157d                	addi	a0,a0,-1
     858:	0ff57513          	zext.b	a0,a0
     85c:	00a705b3          	add	a1,a4,a0
     860:	03068693          	addi	a3,a3,48
        num /= 10;
     864:	03b7c7b3          	div	a5,a5,s11
        str[--position] = num % 10 + '0';
     868:	00d58023          	sb	a3,0(a1)
     86c:	b5f9                	j	73a <main+0x25e>
     86e:	0000                	unimp
     870:	4d206f47          	.insn	4, 0x4d206f47
     874:	7261                	lui	tp,0xffff8
     876:	6f69                	lui	t5,0x1a
     878:	2121                	jal	c80 <bitmap_mario_4+0x3c4>
     87a:	0021                	c.nop	8
     87c:	7552                	.insn	2, 0x7552
     87e:	216e                	.insn	2, 0x216e
     880:	2121                	jal	c88 <bitmap_mario_4+0x3cc>
     882:	0000                	unimp
     884:	6948                	.insn	2, 0x6948
     886:	2074                	.insn	2, 0x2074
     888:	7242                	.insn	2, 0x7242
     88a:	6369                	lui	t1,0x1a
     88c:	2121736b          	.insn	4, 0x2121736b
     890:	0021                	c.nop	8
     892:	0000                	unimp
     894:	6542                	.insn	2, 0x6542
     896:	7461                	lui	s0,0xffff8
     898:	4d20                	lw	s0,88(a0)
     89a:	74736e6f          	jal	t3,377e0 <_data_lma+0x34354>
     89e:	7265                	lui	tp,0xffff9
     8a0:	00000073          	ecall
     8a4:	6552                	.insn	2, 0x6552
     8a6:	65756373          	.insn	4, 0x65756373
     8aa:	5020                	lw	s0,96(s0)
     8ac:	6972                	.insn	2, 0x6972
     8ae:	636e                	.insn	2, 0x636e
     8b0:	7365                	lui	t1,0xffff9
     8b2:	72460073          	.insn	4, 0x72460073
     8b6:	6d61                	lui	s10,0x18
     8b8:	7365                	lui	t1,0xffff9
	...

000008bc <bitmap_mario_4>:
	...
     8ec:	c2f9 c2f9 0000 0000 0000 0000 0000 0000     ................
	...
     934:	c2f9 c2f9 0000 0000 0000 0000 0000 0000     ................
	...
     970:	c2f9 c2f9 c2f9 c2f9 c2f9 c2f9 c2f9 c2f9     ................
	...
     9b8:	c2f9 c2f9 c2f9 c2f9 c2f9 c2f9 c2f9 c2f9     ................
	...
     9f4:	c2f9 c2f9 c2f9 c2f9 c2f9 c2f9 c2f9 c2f9     ................
     a04:	c2f9 c2f9 c2f9 c2f9 0000 0000 0000 0000     ................
	...
     a3c:	c2f9 c2f9 c2f9 c2f9 c2f9 c2f9 c2f9 c2f9     ................
     a4c:	c2f9 c2f9 c2f9 c2f9 0000 0000 0000 0000     ................
	...
     a80:	c2f9 c2f9 c2f9 c2f9 c2f9 c2f9 c2f9 c2f9     ................
     a90:	a393 a393 ccfd ccfd ccfd ccfd 0000 0000     ................
	...
     ac8:	c2f9 c2f9 c2f9 c2f9 c2f9 c2f9 c2f9 c2f9     ................
     ad8:	a393 a393 ccfd ccfd ccfd ccfd 0000 0000     ................
	...
     b10:	a393 a393 a393 a393 a393 a393 ccfd ccfd     ................
     b20:	ccfd ccfd a393 a393 ccfd ccfd 0000 0000     ................
	...
     b58:	a393 a393 a393 a393 a393 a393 ccfd ccfd     ................
     b68:	ccfd ccfd a393 a393 ccfd ccfd 0000 0000     ................
	...
     b9c:	a393 a393 ccfd ccfd a393 a393 ccfd ccfd     ................
     bac:	ccfd ccfd ccfd ccfd a393 a393 ccfd ccfd     ................
     bbc:	ccfd ccfd a393 a393 0000 0000 0000 0000     ................
	...
     be4:	a393 a393 ccfd ccfd a393 a393 ccfd ccfd     ................
     bf4:	ccfd ccfd ccfd ccfd a393 a393 ccfd ccfd     ................
     c04:	ccfd ccfd a393 a393 0000 0000 0000 0000     ................
	...
     c2c:	a393 a393 ccfd ccfd a393 a393 a393 a393     ................
     c3c:	ccfd ccfd ccfd ccfd ccfd ccfd a393 a393     ................
     c4c:	ccfd ccfd ccfd ccfd ccfd ccfd a393 a393     ................
     c5c:	ccfd ccfd 0000 0000 0000 0000 0000 0000     ................
	...
     c74:	a393 a393 ccfd ccfd a393 a393 a393 a393     ................
     c84:	ccfd ccfd ccfd ccfd ccfd ccfd a393 a393     ................
     c94:	ccfd ccfd ccfd ccfd ccfd ccfd a393 a393     ................
     ca4:	ccfd ccfd 0000 0000 0000 0000 0000 0000     ................
	...
     cbc:	a393 a393 a393 a393 ccfd ccfd ccfd ccfd     ................
     ccc:	ccfd ccfd ccfd ccfd a393 a393 a393 a393     ................
     cdc:	a393 a393 a393 a393 a393 a393 ccfd ccfd     ................
     cec:	ccfd ccfd ccfd ccfd 0000 0000 0000 0000     ................
	...
     d04:	a393 a393 a393 a393 ccfd ccfd ccfd ccfd     ................
     d14:	ccfd ccfd ccfd ccfd a393 a393 a393 a393     ................
     d24:	a393 a393 a393 a393 a393 a393 ccfd ccfd     ................
     d34:	ccfd ccfd ccfd ccfd 0000 0000 0000 0000     ................
	...
     d54:	ccfd ccfd ccfd ccfd ccfd ccfd ccfd ccfd     ................
     d64:	ccfd ccfd ccfd ccfd ccfd ccfd a393 a393     ................
     d74:	a393 a393 ccfd ccfd ccfd ccfd 0000 0000     ................
	...
     d9c:	ccfd ccfd ccfd ccfd ccfd ccfd ccfd ccfd     ................
     dac:	ccfd ccfd ccfd ccfd ccfd ccfd a393 a393     ................
     dbc:	a393 a393 ccfd ccfd ccfd ccfd 0000 0000     ................
	...
     dd4:	a393 a393 a393 a393 a393 a393 a393 a393     ................
     de4:	a393 a393 c2f9 c2f9 a393 a393 a393 a393     ................
     df4:	a393 a393 c2f9 c2f9 a393 a393 0000 0000     ................
	...
     e1c:	a393 a393 a393 a393 a393 a393 a393 a393     ................
     e2c:	a393 a393 c2f9 c2f9 a393 a393 a393 a393     ................
     e3c:	a393 a393 c2f9 c2f9 a393 a393 0000 0000     ................
	...
     e60:	a393 a393 a393 a393 ccfd ccfd ccfd ccfd     ................
     e70:	a393 a393 a393 a393 a393 a393 c2f9 c2f9     ................
     e80:	a393 a393 a393 a393 a393 a393 c2f9 c2f9     ................
	...
     ea8:	a393 a393 a393 a393 ccfd ccfd ccfd ccfd     ................
     eb8:	a393 a393 a393 a393 a393 a393 c2f9 c2f9     ................
     ec8:	a393 a393 a393 a393 a393 a393 c2f9 c2f9     ................
	...
     ef4:	ccfd ccfd ccfd ccfd ccfd ccfd a393 a393     ................
     f04:	a393 a393 a393 a393 c2f9 c2f9 c2f9 c2f9     ................
     f14:	c2f9 c2f9 c2f9 c2f9 c2f9 c2f9 0000 0000     ................
	...
     f3c:	ccfd ccfd ccfd ccfd ccfd ccfd a393 a393     ................
     f4c:	a393 a393 a393 a393 c2f9 c2f9 c2f9 c2f9     ................
     f5c:	c2f9 c2f9 c2f9 c2f9 c2f9 c2f9 0000 0000     ................
	...
     f84:	ccfd ccfd ccfd ccfd ccfd ccfd c2f9 c2f9     ................
     f94:	a393 a393 c2f9 c2f9 c2f9 c2f9 ccfd ccfd     ................
     fa4:	c2f9 c2f9 c2f9 c2f9 ccfd ccfd 0000 0000     ................
	...
     fcc:	ccfd ccfd ccfd ccfd ccfd ccfd c2f9 c2f9     ................
     fdc:	a393 a393 c2f9 c2f9 c2f9 c2f9 ccfd ccfd     ................
     fec:	c2f9 c2f9 c2f9 c2f9 ccfd ccfd 0000 0000     ................
	...
    1014:	a393 a393 a393 a393 c2f9 c2f9 c2f9 c2f9     ................
    1024:	c2f9 c2f9 c2f9 c2f9 c2f9 c2f9 c2f9 c2f9     ................
    1034:	c2f9 c2f9 c2f9 c2f9 c2f9 c2f9 0000 0000     ................
	...
    105c:	a393 a393 a393 a393 c2f9 c2f9 c2f9 c2f9     ................
    106c:	c2f9 c2f9 c2f9 c2f9 c2f9 c2f9 c2f9 c2f9     ................
    107c:	c2f9 c2f9 c2f9 c2f9 c2f9 c2f9 0000 0000     ................
	...
    109c:	a393 a393 a393 a393 a393 a393 a393 a393     ................
    10ac:	a393 a393 c2f9 c2f9 c2f9 c2f9 c2f9 c2f9     ................
    10bc:	c2f9 c2f9 c2f9 c2f9 c2f9 c2f9 c2f9 c2f9     ................
    10cc:	c2f9 c2f9 c2f9 c2f9 0000 0000 0000 0000     ................
	...
    10e4:	a393 a393 a393 a393 a393 a393 a393 a393     ................
    10f4:	a393 a393 c2f9 c2f9 c2f9 c2f9 c2f9 c2f9     ................
    1104:	c2f9 c2f9 c2f9 c2f9 c2f9 c2f9 c2f9 c2f9     ................
    1114:	c2f9 c2f9 c2f9 c2f9 0000 0000 0000 0000     ................
	...
    1138:	c2f9 c2f9 c2f9 c2f9 c2f9 c2f9 c2f9 c2f9     ................
    1148:	c2f9 c2f9 c2f9 c2f9 c2f9 c2f9 c2f9 c2f9     ................
    1158:	c2f9 c2f9 c2f9 c2f9 c2f9 c2f9 0000 0000     ................
	...
    1180:	c2f9 c2f9 c2f9 c2f9 c2f9 c2f9 c2f9 c2f9     ................
    1190:	c2f9 c2f9 c2f9 c2f9 c2f9 c2f9 c2f9 c2f9     ................
    11a0:	c2f9 c2f9 c2f9 c2f9 c2f9 c2f9 0000 0000     ................
	...
    11cc:	c2f9 c2f9 c2f9 c2f9 c2f9 c2f9 c2f9 c2f9     ................
	...
    11e8:	c2f9 c2f9 a393 a393 a393 a393 0000 0000     ................
	...
    1214:	c2f9 c2f9 c2f9 c2f9 c2f9 c2f9 c2f9 c2f9     ................
	...
    1230:	c2f9 c2f9 a393 a393 a393 a393 0000 0000     ................
	...
    1278:	a393 a393 a393 a393 a393 a393 a393 a393     ................
    1288:	a393 a393 a393 a393 a393 a393 0000 0000     ................
	...
    12c0:	a393 a393 a393 a393 a393 a393 a393 a393     ................
    12d0:	a393 a393 a393 a393 a393 a393 0000 0000     ................
	...
    1308:	a393 a393 a393 a393 a393 a393 a393 a393     ................
    1318:	a393 a393 a393 a393 0000 0000 0000 0000     ................
	...
    1350:	a393 a393 a393 a393 a393 a393 a393 a393     ................
    1360:	a393 a393 a393 a393 0000 0000 0000 0000     ................
	...
    139c:	a393 a393 a393 a393 a393 a393 0000 0000     ................
	...
    13e4:	a393 a393 a393 a393 a393 a393 0000 0000     ................
	...

000013fc <bitmap_mario_3>:
	...
    1424:	c2f9 c2f9 c2f9 c2f9 c2f9 c2f9 0000 0000     ................
	...
    1468:	c2f9 c2f9 c2f9 c2f9 c2f9 c2f9 0000 0000     ................
	...
    1498:	c2f9 c2f9 c2f9 c2f9 c2f9 c2f9 c2f9 c2f9     ................
    14a8:	c2f9 c2f9 c2f9 c2f9 c2f9 c2f9 0000 0000     ................
	...
    14dc:	c2f9 c2f9 c2f9 c2f9 c2f9 c2f9 c2f9 c2f9     ................
    14ec:	c2f9 c2f9 c2f9 c2f9 c2f9 c2f9 0000 0000     ................
	...
    151c:	c2f9 c2f9 c2f9 c2f9 c2f9 c2f9 c2f9 c2f9     ................
    152c:	a393 a393 ccfd ccfd ccfd ccfd 0000 0000     ................
    153c:	0000 0000 ccfd ccfd ccfd ccfd 0000 0000     ................
	...
    1560:	c2f9 c2f9 c2f9 c2f9 c2f9 c2f9 c2f9 c2f9     ................
    1570:	a393 a393 ccfd ccfd ccfd ccfd 0000 0000     ................
    1580:	0000 0000 ccfd ccfd ccfd ccfd 0000 0000     ................
	...
    15a4:	a393 a393 a393 a393 a393 a393 ccfd ccfd     ................
    15b4:	ccfd ccfd a393 a393 ccfd ccfd 0000 0000     ................
    15c4:	0000 0000 ccfd ccfd ccfd ccfd ccfd ccfd     ................
	...
    15e8:	a393 a393 a393 a393 a393 a393 ccfd ccfd     ................
    15f8:	ccfd ccfd a393 a393 ccfd ccfd 0000 0000     ................
    1608:	0000 0000 ccfd ccfd ccfd ccfd ccfd ccfd     ................
	...
    1628:	a393 a393 ccfd ccfd a393 a393 ccfd ccfd     ................
    1638:	ccfd ccfd ccfd ccfd a393 a393 ccfd ccfd     ................
    1648:	ccfd ccfd a393 a393 a393 a393 ccfd ccfd     ................
    1658:	ccfd ccfd 0000 0000 0000 0000 0000 0000     ................
    1668:	0000 0000 a393 a393 ccfd ccfd a393 a393     ................
    1678:	ccfd ccfd ccfd ccfd ccfd ccfd a393 a393     ................
    1688:	ccfd ccfd ccfd ccfd a393 a393 a393 a393     ................
    1698:	ccfd ccfd ccfd ccfd 0000 0000 0000 0000     ................
	...
    16b0:	a393 a393 ccfd ccfd a393 a393 a393 a393     ................
    16c0:	ccfd ccfd ccfd ccfd ccfd ccfd a393 a393     ................
    16d0:	ccfd ccfd ccfd ccfd ccfd ccfd a393 a393     ................
	...
    16f4:	a393 a393 ccfd ccfd a393 a393 a393 a393     ................
    1704:	ccfd ccfd ccfd ccfd ccfd ccfd a393 a393     ................
    1714:	ccfd ccfd ccfd ccfd ccfd ccfd a393 a393     ................
	...
    1738:	a393 a393 a393 a393 ccfd ccfd ccfd ccfd     ................
    1748:	ccfd ccfd ccfd ccfd a393 a393 a393 a393     ................
    1758:	a393 a393 a393 a393 a393 a393 0000 0000     ................
	...
    177c:	a393 a393 a393 a393 ccfd ccfd ccfd ccfd     ................
    178c:	ccfd ccfd ccfd ccfd a393 a393 a393 a393     ................
    179c:	a393 a393 a393 a393 a393 a393 0000 0000     ................
	...
    17c8:	ccfd ccfd ccfd ccfd ccfd ccfd ccfd ccfd     ................
    17d8:	ccfd ccfd ccfd ccfd ccfd ccfd a393 a393     ................
	...
    180c:	ccfd ccfd ccfd ccfd ccfd ccfd ccfd ccfd     ................
    181c:	ccfd ccfd ccfd ccfd ccfd ccfd a393 a393     ................
	...
    1840:	a393 a393 a393 a393 a393 a393 a393 a393     ................
    1850:	a393 a393 c2f9 c2f9 a393 a393 a393 a393     ................
    1860:	a393 a393 c2f9 c2f9 a393 a393 0000 0000     ................
	...
    1884:	a393 a393 a393 a393 a393 a393 a393 a393     ................
    1894:	a393 a393 c2f9 c2f9 a393 a393 a393 a393     ................
    18a4:	a393 a393 c2f9 c2f9 a393 a393 0000 0000     ................
	...
    18c4:	a393 a393 a393 a393 ccfd ccfd ccfd ccfd     ................
    18d4:	a393 a393 a393 a393 a393 a393 c2f9 c2f9     ................
    18e4:	a393 a393 a393 a393 a393 a393 c2f9 c2f9     ................
	...
    1908:	a393 a393 a393 a393 ccfd ccfd ccfd ccfd     ................
    1918:	a393 a393 a393 a393 a393 a393 c2f9 c2f9     ................
    1928:	a393 a393 a393 a393 a393 a393 c2f9 c2f9     ................
	...
    1950:	ccfd ccfd ccfd ccfd ccfd ccfd a393 a393     ................
    1960:	a393 a393 a393 a393 c2f9 c2f9 c2f9 c2f9     ................
    1970:	c2f9 c2f9 c2f9 c2f9 c2f9 c2f9 0000 0000     ................
	...
    1994:	ccfd ccfd ccfd ccfd ccfd ccfd a393 a393     ................
    19a4:	a393 a393 a393 a393 c2f9 c2f9 c2f9 c2f9     ................
    19b4:	c2f9 c2f9 c2f9 c2f9 c2f9 c2f9 0000 0000     ................
	...
    19d8:	ccfd ccfd ccfd ccfd ccfd ccfd c2f9 c2f9     ................
    19e8:	a393 a393 c2f9 c2f9 c2f9 c2f9 ccfd ccfd     ................
    19f8:	c2f9 c2f9 c2f9 c2f9 ccfd ccfd 0000 0000     ................
	...
    1a1c:	ccfd ccfd ccfd ccfd ccfd ccfd c2f9 c2f9     ................
    1a2c:	a393 a393 c2f9 c2f9 c2f9 c2f9 ccfd ccfd     ................
    1a3c:	c2f9 c2f9 c2f9 c2f9 ccfd ccfd 0000 0000     ................
	...
    1a64:	a393 a393 c2f9 c2f9 c2f9 c2f9 c2f9 c2f9     ................
    1a74:	c2f9 c2f9 c2f9 c2f9 c2f9 c2f9 c2f9 c2f9     ................
    1a84:	c2f9 c2f9 c2f9 c2f9 c2f9 c2f9 0000 0000     ................
	...
    1aa8:	a393 a393 c2f9 c2f9 c2f9 c2f9 c2f9 c2f9     ................
    1ab8:	c2f9 c2f9 c2f9 c2f9 c2f9 c2f9 c2f9 c2f9     ................
    1ac8:	c2f9 c2f9 c2f9 c2f9 c2f9 c2f9 0000 0000     ................
	...
    1ae8:	a393 a393 a393 a393 a393 a393 c2f9 c2f9     ................
    1af8:	c2f9 c2f9 c2f9 c2f9 c2f9 c2f9 c2f9 c2f9     ................
    1b08:	c2f9 c2f9 c2f9 c2f9 c2f9 c2f9 c2f9 c2f9     ................
    1b18:	a393 a393 0000 0000 0000 0000 a393 a393     ................
    1b28:	0000 0000 a393 a393 a393 a393 a393 a393     ................
    1b38:	c2f9 c2f9 c2f9 c2f9 c2f9 c2f9 c2f9 c2f9     ................
    1b48:	c2f9 c2f9 c2f9 c2f9 c2f9 c2f9 c2f9 c2f9     ................
    1b58:	c2f9 c2f9 a393 a393 0000 0000 0000 0000     ................
    1b68:	a393 a393 a393 a393 a393 a393 a393 a393     ................
    1b78:	c2f9 c2f9 c2f9 c2f9 c2f9 c2f9 c2f9 c2f9     ................
    1b88:	c2f9 c2f9 c2f9 c2f9 c2f9 c2f9 c2f9 c2f9     ................
    1b98:	c2f9 c2f9 a393 a393 a393 a393 a393 a393     ................
    1ba8:	a393 a393 a393 a393 a393 a393 a393 a393     ................
    1bb8:	a393 a393 c2f9 c2f9 c2f9 c2f9 c2f9 c2f9     ................
    1bc8:	c2f9 c2f9 c2f9 c2f9 c2f9 c2f9 c2f9 c2f9     ................
    1bd8:	c2f9 c2f9 c2f9 c2f9 a393 a393 a393 a393     ................
    1be8:	a393 a393 a393 a393 a393 a393 a393 a393     ................
	...
    1c00:	c2f9 c2f9 c2f9 c2f9 c2f9 c2f9 c2f9 c2f9     ................
	...
    1c20:	a393 a393 a393 a393 a393 a393 a393 a393     ................
    1c30:	a393 a393 0000 0000 a393 a393 0000 0000     ................
    1c40:	0000 0000 c2f9 c2f9 c2f9 c2f9 c2f9 c2f9     ................
    1c50:	c2f9 c2f9 0000 0000 0000 0000 0000 0000     ................
    1c60:	0000 0000 a393 a393 a393 a393 a393 a393     ................
    1c70:	a393 a393 a393 a393 0000 0000 0000 0000     ................
	...
    1cac:	a393 a393 a393 a393 0000 0000 0000 0000     ................
	...
    1cf0:	a393 a393 a393 a393 0000 0000 0000 0000     ................
    1d00:	0000 0000                                   ....

00001d04 <bitmap_mario_2>:
	...
    1d38:	ccfd ccfd ccfd ccfd ccfd ccfd 0000 0000     ................
	...
    1d78:	ccfd ccfd ccfd ccfd ccfd ccfd 0000 0000     ................
	...
    1d9c:	c2f9 c2f9 c2f9 c2f9 c2f9 c2f9 c2f9 c2f9     ................
    1dac:	c2f9 c2f9 0000 0000 0000 0000 ccfd ccfd     ................
    1dbc:	ccfd ccfd ccfd ccfd 0000 0000 0000 0000     ................
	...
    1ddc:	c2f9 c2f9 c2f9 c2f9 c2f9 c2f9 c2f9 c2f9     ................
    1dec:	c2f9 c2f9 0000 0000 0000 0000 ccfd ccfd     ................
    1dfc:	ccfd ccfd ccfd ccfd 0000 0000 0000 0000     ................
	...
    1e18:	c2f9 c2f9 c2f9 c2f9 c2f9 c2f9 c2f9 c2f9     ................
    1e28:	c2f9 c2f9 c2f9 c2f9 c2f9 c2f9 c2f9 c2f9     ................
    1e38:	c2f9 c2f9 ccfd ccfd ccfd ccfd 0000 0000     ................
	...
    1e58:	c2f9 c2f9 c2f9 c2f9 c2f9 c2f9 c2f9 c2f9     ................
    1e68:	c2f9 c2f9 c2f9 c2f9 c2f9 c2f9 c2f9 c2f9     ................
    1e78:	c2f9 c2f9 ccfd ccfd ccfd ccfd 0000 0000     ................
	...
    1e98:	a393 a393 a393 a393 a393 a393 ccfd ccfd     ................
    1ea8:	ccfd ccfd a393 a393 ccfd ccfd 0000 0000     ................
    1eb8:	a393 a393 a393 a393 a393 a393 0000 0000     ................
	...
    1ed8:	a393 a393 a393 a393 a393 a393 ccfd ccfd     ................
    1ee8:	ccfd ccfd a393 a393 ccfd ccfd 0000 0000     ................
    1ef8:	a393 a393 a393 a393 a393 a393 0000 0000     ................
	...
    1f14:	a393 a393 ccfd ccfd a393 a393 ccfd ccfd     ................
    1f24:	ccfd ccfd ccfd ccfd a393 a393 ccfd ccfd     ................
    1f34:	ccfd ccfd a393 a393 a393 a393 a393 a393     ................
	...
    1f54:	a393 a393 ccfd ccfd a393 a393 ccfd ccfd     ................
    1f64:	ccfd ccfd ccfd ccfd a393 a393 ccfd ccfd     ................
    1f74:	ccfd ccfd a393 a393 a393 a393 a393 a393     ................
	...
    1f94:	a393 a393 ccfd ccfd a393 a393 a393 a393     ................
    1fa4:	ccfd ccfd ccfd ccfd ccfd ccfd a393 a393     ................
    1fb4:	ccfd ccfd ccfd ccfd ccfd ccfd a393 a393     ................
	...
    1fd4:	a393 a393 ccfd ccfd a393 a393 a393 a393     ................
    1fe4:	ccfd ccfd ccfd ccfd ccfd ccfd a393 a393     ................
    1ff4:	ccfd ccfd ccfd ccfd ccfd ccfd a393 a393     ................
	...
    2014:	a393 a393 a393 a393 ccfd ccfd ccfd ccfd     ................
    2024:	ccfd ccfd ccfd ccfd a393 a393 a393 a393     ................
    2034:	a393 a393 a393 a393 a393 a393 0000 0000     ................
	...
    2054:	a393 a393 a393 a393 ccfd ccfd ccfd ccfd     ................
    2064:	ccfd ccfd ccfd ccfd a393 a393 a393 a393     ................
    2074:	a393 a393 a393 a393 a393 a393 0000 0000     ................
	...
    209c:	ccfd ccfd ccfd ccfd ccfd ccfd ccfd ccfd     ................
    20ac:	ccfd ccfd ccfd ccfd ccfd ccfd a393 a393     ................
	...
    20dc:	ccfd ccfd ccfd ccfd ccfd ccfd ccfd ccfd     ................
    20ec:	ccfd ccfd ccfd ccfd ccfd ccfd a393 a393     ................
	...
    210c:	a393 a393 a393 a393 a393 a393 a393 a393     ................
    211c:	a393 a393 c2f9 c2f9 a393 a393 a393 a393     ................
    212c:	a393 a393 c2f9 c2f9 a393 a393 0000 0000     ................
	...
    214c:	a393 a393 a393 a393 a393 a393 a393 a393     ................
    215c:	a393 a393 c2f9 c2f9 a393 a393 a393 a393     ................
    216c:	a393 a393 c2f9 c2f9 a393 a393 0000 0000     ................
	...
    2188:	a393 a393 a393 a393 a393 a393 a393 a393     ................
    2198:	a393 a393 a393 a393 a393 a393 c2f9 c2f9     ................
    21a8:	a393 a393 a393 a393 a393 a393 c2f9 c2f9     ................
	...
    21c0:	a393 a393 0000 0000 a393 a393 a393 a393     ................
    21d0:	a393 a393 a393 a393 a393 a393 a393 a393     ................
    21e0:	a393 a393 c2f9 c2f9 a393 a393 a393 a393     ................
    21f0:	a393 a393 c2f9 c2f9 0000 0000 0000 0000     ................
    2200:	a393 a393 ccfd ccfd ccfd ccfd a393 a393     ................
    2210:	a393 a393 a393 a393 a393 a393 a393 a393     ................
    2220:	a393 a393 c2f9 c2f9 c2f9 c2f9 c2f9 c2f9     ................
    2230:	c2f9 c2f9 c2f9 c2f9 0000 0000 0000 0000     ................
    2240:	a393 a393 ccfd ccfd ccfd ccfd a393 a393     ................
    2250:	a393 a393 a393 a393 a393 a393 a393 a393     ................
    2260:	a393 a393 c2f9 c2f9 c2f9 c2f9 c2f9 c2f9     ................
    2270:	c2f9 c2f9 c2f9 c2f9 0000 0000 0000 0000     ................
    2280:	a393 a393 ccfd ccfd ccfd ccfd ccfd ccfd     ................
    2290:	0000 0000 c2f9 c2f9 c2f9 c2f9 a393 a393     ................
    22a0:	c2f9 c2f9 c2f9 c2f9 ccfd ccfd c2f9 c2f9     ................
    22b0:	c2f9 c2f9 ccfd ccfd c2f9 c2f9 a393 a393     ................
    22c0:	a393 a393 ccfd ccfd ccfd ccfd ccfd ccfd     ................
    22d0:	0000 0000 c2f9 c2f9 c2f9 c2f9 a393 a393     ................
    22e0:	c2f9 c2f9 c2f9 c2f9 ccfd ccfd c2f9 c2f9     ................
    22f0:	c2f9 c2f9 ccfd ccfd c2f9 c2f9 a393 a393     ................
    2300:	a393 a393 0000 0000 ccfd ccfd 0000 0000     ................
    2310:	a393 a393 c2f9 c2f9 c2f9 c2f9 c2f9 c2f9     ................
    2320:	c2f9 c2f9 c2f9 c2f9 c2f9 c2f9 c2f9 c2f9     ................
    2330:	c2f9 c2f9 c2f9 c2f9 c2f9 c2f9 a393 a393     ................
    2340:	a393 a393 0000 0000 ccfd ccfd 0000 0000     ................
    2350:	a393 a393 c2f9 c2f9 c2f9 c2f9 c2f9 c2f9     ................
    2360:	c2f9 c2f9 c2f9 c2f9 c2f9 c2f9 c2f9 c2f9     ................
    2370:	c2f9 c2f9 c2f9 c2f9 c2f9 c2f9 a393 a393     ................
    2380:	a393 a393 0000 0000 0000 0000 a393 a393     ................
    2390:	a393 a393 a393 a393 c2f9 c2f9 c2f9 c2f9     ................
    23a0:	c2f9 c2f9 c2f9 c2f9 c2f9 c2f9 c2f9 c2f9     ................
    23b0:	c2f9 c2f9 c2f9 c2f9 c2f9 c2f9 a393 a393     ................
    23c0:	a393 a393 0000 0000 0000 0000 a393 a393     ................
    23d0:	a393 a393 a393 a393 c2f9 c2f9 c2f9 c2f9     ................
    23e0:	c2f9 c2f9 c2f9 c2f9 c2f9 c2f9 c2f9 c2f9     ................
    23f0:	c2f9 c2f9 c2f9 c2f9 c2f9 c2f9 a393 a393     ................
    2400:	a393 a393 0000 0000 a393 a393 a393 a393     ................
    2410:	a393 a393 c2f9 c2f9 c2f9 c2f9 c2f9 c2f9     ................
    2420:	c2f9 c2f9 c2f9 c2f9 c2f9 c2f9 c2f9 c2f9     ................
	...
    2448:	a393 a393 a393 a393 a393 a393 c2f9 c2f9     ................
    2458:	c2f9 c2f9 c2f9 c2f9 c2f9 c2f9 c2f9 c2f9     ................
    2468:	c2f9 c2f9 c2f9 c2f9 0000 0000 0000 0000     ................
	...
    2488:	a393 a393 0000 0000 0000 0000 c2f9 c2f9     ................
    2498:	c2f9 c2f9 c2f9 c2f9 c2f9 c2f9 0000 0000     ................
	...
    24c8:	a393 a393 0000 0000 0000 0000 c2f9 c2f9     ................
    24d8:	c2f9 c2f9 c2f9 c2f9 c2f9 c2f9 0000 0000     ................
	...

00002504 <bitmap_mario_1>:
	...
    2514:	c2f9 c2f9 c2f9 c2f9 c2f9 c2f9 c2f9 c2f9     ................
    2524:	c2f9 c2f9 0000 0000 0000 0000 0000 0000     ................
	...
    254c:	c2f9 c2f9 c2f9 c2f9 c2f9 c2f9 c2f9 c2f9     ................
    255c:	c2f9 c2f9 0000 0000 0000 0000 0000 0000     ................
	...
    2580:	c2f9 c2f9 c2f9 c2f9 c2f9 c2f9 c2f9 c2f9     ................
    2590:	c2f9 c2f9 c2f9 c2f9 c2f9 c2f9 c2f9 c2f9     ................
    25a0:	c2f9 c2f9 0000 0000 0000 0000 0000 0000     ................
	...
    25b8:	c2f9 c2f9 c2f9 c2f9 c2f9 c2f9 c2f9 c2f9     ................
    25c8:	c2f9 c2f9 c2f9 c2f9 c2f9 c2f9 c2f9 c2f9     ................
    25d8:	c2f9 c2f9 0000 0000 0000 0000 0000 0000     ................
	...
    25f0:	a393 a393 a393 a393 a393 a393 ccfd ccfd     ................
    2600:	ccfd ccfd a393 a393 ccfd ccfd 0000 0000     ................
	...
    2628:	a393 a393 a393 a393 a393 a393 ccfd ccfd     ................
    2638:	ccfd ccfd a393 a393 ccfd ccfd 0000 0000     ................
	...
    265c:	a393 a393 ccfd ccfd a393 a393 ccfd ccfd     ................
    266c:	ccfd ccfd ccfd ccfd a393 a393 ccfd ccfd     ................
    267c:	ccfd ccfd ccfd ccfd 0000 0000 0000 0000     ................
	...
    2694:	a393 a393 ccfd ccfd a393 a393 ccfd ccfd     ................
    26a4:	ccfd ccfd ccfd ccfd a393 a393 ccfd ccfd     ................
    26b4:	ccfd ccfd ccfd ccfd 0000 0000 0000 0000     ................
	...
    26cc:	a393 a393 ccfd ccfd a393 a393 a393 a393     ................
    26dc:	ccfd ccfd ccfd ccfd ccfd ccfd a393 a393     ................
    26ec:	ccfd ccfd ccfd ccfd ccfd ccfd 0000 0000     ................
	...
    2704:	a393 a393 ccfd ccfd a393 a393 a393 a393     ................
    2714:	ccfd ccfd ccfd ccfd ccfd ccfd a393 a393     ................
    2724:	ccfd ccfd ccfd ccfd ccfd ccfd 0000 0000     ................
	...
    273c:	a393 a393 a393 a393 ccfd ccfd ccfd ccfd     ................
    274c:	ccfd ccfd ccfd ccfd a393 a393 a393 a393     ................
    275c:	a393 a393 a393 a393 0000 0000 0000 0000     ................
	...
    2774:	a393 a393 a393 a393 ccfd ccfd ccfd ccfd     ................
    2784:	ccfd ccfd ccfd ccfd a393 a393 a393 a393     ................
    2794:	a393 a393 a393 a393 0000 0000 0000 0000     ................
	...
    27b4:	ccfd ccfd ccfd ccfd ccfd ccfd ccfd ccfd     ................
    27c4:	ccfd ccfd ccfd ccfd ccfd ccfd 0000 0000     ................
	...
    27ec:	ccfd ccfd ccfd ccfd ccfd ccfd ccfd ccfd     ................
    27fc:	ccfd ccfd ccfd ccfd ccfd ccfd 0000 0000     ................
	...
    2820:	a393 a393 a393 a393 c2f9 c2f9 a393 a393     ................
    2830:	a393 a393 c2f9 c2f9 0000 0000 0000 0000     ................
    2840:	0000 0000 ccfd ccfd ccfd ccfd 0000 0000     ................
	...
    2858:	a393 a393 a393 a393 c2f9 c2f9 a393 a393     ................
    2868:	a393 a393 c2f9 c2f9 0000 0000 0000 0000     ................
    2878:	0000 0000 ccfd ccfd ccfd ccfd 0000 0000     ................
    2888:	a393 a393 a393 a393 a393 a393 a393 a393     ................
    2898:	c2f9 c2f9 c2f9 c2f9 a393 a393 c2f9 c2f9     ................
    28a8:	a393 a393 a393 a393 ccfd ccfd ccfd ccfd     ................
    28b8:	ccfd ccfd 0000 0000 a393 a393 a393 a393     ................
    28c8:	a393 a393 a393 a393 c2f9 c2f9 c2f9 c2f9     ................
    28d8:	a393 a393 c2f9 c2f9 a393 a393 a393 a393     ................
    28e8:	ccfd ccfd ccfd ccfd ccfd ccfd a393 a393     ................
    28f8:	a393 a393 a393 a393 a393 a393 a393 a393     ................
    2908:	c2f9 c2f9 c2f9 c2f9 c2f9 c2f9 c2f9 c2f9     ................
    2918:	c2f9 c2f9 a393 a393 a393 a393 ccfd ccfd     ................
    2928:	ccfd ccfd a393 a393 a393 a393 a393 a393     ................
    2938:	a393 a393 a393 a393 c2f9 c2f9 c2f9 c2f9     ................
    2948:	c2f9 c2f9 c2f9 c2f9 c2f9 c2f9 a393 a393     ................
    2958:	a393 a393 ccfd ccfd ccfd ccfd ccfd ccfd     ................
    2968:	ccfd ccfd ccfd ccfd a393 a393 c2f9 c2f9     ................
    2978:	c2f9 c2f9 ccfd ccfd c2f9 c2f9 c2f9 c2f9     ................
    2988:	ccfd ccfd a393 a393 0000 0000 0000 0000     ................
    2998:	0000 0000 ccfd ccfd ccfd ccfd ccfd ccfd     ................
    29a8:	a393 a393 c2f9 c2f9 c2f9 c2f9 ccfd ccfd     ................
    29b8:	c2f9 c2f9 c2f9 c2f9 ccfd ccfd a393 a393     ................
	...
    29d4:	ccfd ccfd ccfd ccfd 0000 0000 0000 0000     ................
    29e4:	c2f9 c2f9 c2f9 c2f9 c2f9 c2f9 c2f9 c2f9     ................
    29f4:	c2f9 c2f9 c2f9 c2f9 c2f9 c2f9 0000 0000     ................
	...
    2a0c:	ccfd ccfd ccfd ccfd 0000 0000 0000 0000     ................
    2a1c:	c2f9 c2f9 c2f9 c2f9 c2f9 c2f9 c2f9 c2f9     ................
    2a2c:	c2f9 c2f9 c2f9 c2f9 c2f9 c2f9 0000 0000     ................
	...
    2a50:	c2f9 c2f9 c2f9 c2f9 c2f9 c2f9 0000 0000     ................
    2a60:	0000 0000 c2f9 c2f9 c2f9 c2f9 c2f9 c2f9     ................
	...
    2a88:	c2f9 c2f9 c2f9 c2f9 c2f9 c2f9 0000 0000     ................
    2a98:	0000 0000 c2f9 c2f9 c2f9 c2f9 c2f9 c2f9     ................
	...
    2ac0:	a393 a393 a393 a393 c2f9 c2f9 0000 0000     ................
	...
    2ad8:	a393 a393 a393 a393 a393 a393 0000 0000     ................
	...
    2af8:	a393 a393 a393 a393 c2f9 c2f9 0000 0000     ................
	...
    2b10:	a393 a393 a393 a393 a393 a393 0000 0000     ................
	...
    2b2c:	a393 a393 a393 a393 a393 a393 a393 a393     ................
	...
    2b48:	a393 a393 a393 a393 a393 a393 a393 a393     ................
	...
    2b64:	a393 a393 a393 a393 a393 a393 a393 a393     ................
	...
    2b80:	a393 a393 a393 a393 a393 a393 a393 a393     ................
    2b90:	0000 0000                                   ....

00002b94 <bitmap_mario_0>:
	...
    2ba0:	c2f9 c2f9 c2f9 c2f9 c2f9 c2f9 c2f9 c2f9     ................
    2bb0:	c2f9 c2f9 0000 0000 0000 0000 0000 0000     ................
	...
    2bd0:	c2f9 c2f9 c2f9 c2f9 c2f9 c2f9 c2f9 c2f9     ................
    2be0:	c2f9 c2f9 0000 0000 0000 0000 0000 0000     ................
	...
    2bfc:	c2f9 c2f9 c2f9 c2f9 c2f9 c2f9 c2f9 c2f9     ................
    2c0c:	c2f9 c2f9 c2f9 c2f9 c2f9 c2f9 c2f9 c2f9     ................
    2c1c:	c2f9 c2f9 0000 0000 0000 0000 0000 0000     ................
    2c2c:	c2f9 c2f9 c2f9 c2f9 c2f9 c2f9 c2f9 c2f9     ................
    2c3c:	c2f9 c2f9 c2f9 c2f9 c2f9 c2f9 c2f9 c2f9     ................
    2c4c:	c2f9 c2f9 0000 0000 0000 0000 0000 0000     ................
    2c5c:	a393 a393 a393 a393 a393 a393 ccfd ccfd     ................
    2c6c:	ccfd ccfd a393 a393 ccfd ccfd 0000 0000     ................
	...
    2c8c:	a393 a393 a393 a393 a393 a393 ccfd ccfd     ................
    2c9c:	ccfd ccfd a393 a393 ccfd ccfd 0000 0000     ................
	...
    2cb8:	a393 a393 ccfd ccfd a393 a393 ccfd ccfd     ................
    2cc8:	ccfd ccfd ccfd ccfd a393 a393 ccfd ccfd     ................
    2cd8:	ccfd ccfd ccfd ccfd 0000 0000 0000 0000     ................
    2ce8:	a393 a393 ccfd ccfd a393 a393 ccfd ccfd     ................
    2cf8:	ccfd ccfd ccfd ccfd a393 a393 ccfd ccfd     ................
    2d08:	ccfd ccfd ccfd ccfd 0000 0000 0000 0000     ................
    2d18:	a393 a393 ccfd ccfd a393 a393 a393 a393     ................
    2d28:	ccfd ccfd ccfd ccfd ccfd ccfd a393 a393     ................
    2d38:	ccfd ccfd ccfd ccfd ccfd ccfd 0000 0000     ................
    2d48:	a393 a393 ccfd ccfd a393 a393 a393 a393     ................
    2d58:	ccfd ccfd ccfd ccfd ccfd ccfd a393 a393     ................
    2d68:	ccfd ccfd ccfd ccfd ccfd ccfd 0000 0000     ................
    2d78:	a393 a393 a393 a393 ccfd ccfd ccfd ccfd     ................
    2d88:	ccfd ccfd ccfd ccfd a393 a393 a393 a393     ................
    2d98:	a393 a393 a393 a393 0000 0000 0000 0000     ................
    2da8:	a393 a393 a393 a393 ccfd ccfd ccfd ccfd     ................
    2db8:	ccfd ccfd ccfd ccfd a393 a393 a393 a393     ................
    2dc8:	a393 a393 a393 a393 0000 0000 0000 0000     ................
	...
    2de0:	ccfd ccfd ccfd ccfd ccfd ccfd ccfd ccfd     ................
    2df0:	ccfd ccfd ccfd ccfd ccfd ccfd 0000 0000     ................
	...
    2e10:	ccfd ccfd ccfd ccfd ccfd ccfd ccfd ccfd     ................
    2e20:	ccfd ccfd ccfd ccfd ccfd ccfd 0000 0000     ................
	...
    2e3c:	a393 a393 a393 a393 c2f9 c2f9 a393 a393     ................
    2e4c:	a393 a393 a393 a393 0000 0000 0000 0000     ................
	...
    2e6c:	a393 a393 a393 a393 c2f9 c2f9 a393 a393     ................
    2e7c:	a393 a393 a393 a393 0000 0000 0000 0000     ................
	...
    2e98:	a393 a393 a393 a393 a393 a393 c2f9 c2f9     ................
    2ea8:	a393 a393 a393 a393 c2f9 c2f9 a393 a393     ................
    2eb8:	a393 a393 a393 a393 0000 0000 0000 0000     ................
    2ec8:	a393 a393 a393 a393 a393 a393 c2f9 c2f9     ................
    2ed8:	a393 a393 a393 a393 c2f9 c2f9 a393 a393     ................
    2ee8:	a393 a393 a393 a393 0000 0000 a393 a393     ................
    2ef8:	a393 a393 a393 a393 a393 a393 c2f9 c2f9     ................
    2f08:	c2f9 c2f9 c2f9 c2f9 c2f9 c2f9 a393 a393     ................
    2f18:	a393 a393 a393 a393 a393 a393 a393 a393     ................
    2f28:	a393 a393 a393 a393 a393 a393 c2f9 c2f9     ................
    2f38:	c2f9 c2f9 c2f9 c2f9 c2f9 c2f9 a393 a393     ................
    2f48:	a393 a393 a393 a393 a393 a393 ccfd ccfd     ................
    2f58:	ccfd ccfd a393 a393 c2f9 c2f9 ccfd ccfd     ................
    2f68:	c2f9 c2f9 c2f9 c2f9 ccfd ccfd c2f9 c2f9     ................
    2f78:	a393 a393 ccfd ccfd ccfd ccfd ccfd ccfd     ................
    2f88:	ccfd ccfd a393 a393 c2f9 c2f9 ccfd ccfd     ................
    2f98:	c2f9 c2f9 c2f9 c2f9 ccfd ccfd c2f9 c2f9     ................
    2fa8:	a393 a393 ccfd ccfd ccfd ccfd ccfd ccfd     ................
    2fb8:	ccfd ccfd ccfd ccfd c2f9 c2f9 c2f9 c2f9     ................
    2fc8:	c2f9 c2f9 c2f9 c2f9 c2f9 c2f9 c2f9 c2f9     ................
    2fd8:	ccfd ccfd ccfd ccfd ccfd ccfd ccfd ccfd     ................
    2fe8:	ccfd ccfd ccfd ccfd c2f9 c2f9 c2f9 c2f9     ................
    2ff8:	c2f9 c2f9 c2f9 c2f9 c2f9 c2f9 c2f9 c2f9     ................
    3008:	ccfd ccfd ccfd ccfd ccfd ccfd ccfd ccfd     ................
    3018:	ccfd ccfd c2f9 c2f9 c2f9 c2f9 c2f9 c2f9     ................
    3028:	c2f9 c2f9 c2f9 c2f9 c2f9 c2f9 c2f9 c2f9     ................
    3038:	c2f9 c2f9 ccfd ccfd ccfd ccfd ccfd ccfd     ................
    3048:	ccfd ccfd c2f9 c2f9 c2f9 c2f9 c2f9 c2f9     ................
    3058:	c2f9 c2f9 c2f9 c2f9 c2f9 c2f9 c2f9 c2f9     ................
    3068:	c2f9 c2f9 ccfd ccfd ccfd ccfd 0000 0000     ................
    3078:	0000 0000 c2f9 c2f9 c2f9 c2f9 c2f9 c2f9     ................
	...
    3090:	c2f9 c2f9 c2f9 c2f9 c2f9 c2f9 0000 0000     ................
	...
    30ac:	c2f9 c2f9 c2f9 c2f9 c2f9 c2f9 0000 0000     ................
    30bc:	0000 0000 c2f9 c2f9 c2f9 c2f9 c2f9 c2f9     ................
	...
    30d8:	a393 a393 a393 a393 a393 a393 0000 0000     ................
	...
    30f4:	a393 a393 a393 a393 a393 a393 0000 0000     ................
    3104:	0000 0000 a393 a393 a393 a393 a393 a393     ................
	...
    3124:	a393 a393 a393 a393 a393 a393 0000 0000     ................
    3134:	a393 a393 a393 a393 a393 a393 a393 a393     ................
	...
    3154:	a393 a393 a393 a393 a393 a393 a393 a393     ................
    3164:	a393 a393 a393 a393 a393 a393 a393 a393     ................
	...
    3184:	a393 a393 a393 a393 a393 a393 a393 a393     ................

00003194 <font>:
    3194:	0000 0000 3e00 4f5b 3e5b 6b3e 6b4f 1c3e     .....>[O[>>kOk>.
    31a4:	7c3e 1c3e 3c18 3c7e 1c18 7d57 1c57 5e1c     >|>..<~<..W}W..^
    31b4:	5e7f 001c 3c18 0018 e7ff e7c3 00ff 2418     .^...<.........$
    31c4:	0018 e7ff e7db 30ff 3a48 0e06 2926 2979     .......0H:..&)y)
    31d4:	4026 057f 0705 7f40 2505 5a3f e73c 5a3c     &@....@..%?Z<.<Z
    31e4:	3e7f 1c1c 0808 1c1c 7f3e 2214 227f 5f14     .>......>.."."._
    31f4:	005f 5f5f 0906 017f 007f 8966 6a95 6060     _.__......f..j``
    3204:	6060 9460 ffa2 94a2 0408 047e 1008 7e20     ```.......~... ~
    3214:	1020 0808 1c2a 0808 2a1c 0808 101e 1010      ...*....*......
    3224:	0c10 0c1e 0c1e 3830 383e 0630 3e0e 060e     ......08>80..>..
    3234:	0000 0000 0000 5f00 0000 0700 0700 1400     ......._........
    3244:	147f 147f 2a24 2a7f 2312 0813 6264 4936     ....$*.*.#..db6I
    3254:	2056 0050 0708 0003 1c00 4122 0000 2241     V P......."A..A"
    3264:	001c 1c2a 1c7f 082a 3e08 0808 8000 3070     ..*...*..>....p0
    3274:	0800 0808 0808 0000 6060 2000 0810 0204     ........``. ....
    3284:	513e 4549 003e 7f42 0040 4972 4949 2146     >QIE>.B.@.rIIIF!
    3294:	4941 334d 1418 7f12 2710 4545 3945 4a3c     AIM3.....'EEE9<J
    32a4:	4949 4131 1121 0709 4936 4949 4636 4949     II1A!...6III6FII
    32b4:	1e29 0000 0014 0000 3440 0000 0800 2214     ).......@4....."
    32c4:	1441 1414 1414 4100 1422 0208 5901 0609     A......A"....Y..
    32d4:	413e 595d 7c4e 1112 7c12 497f 4949 3e36     >A]YN|...|.III6>
    32e4:	4141 2241 417f 4141 7f3e 4949 4149 097f     AAA".AAA>.IIIA..
    32f4:	0909 3e01 4141 7351 087f 0808 007f 7f41     ...>AAQs......A.
    3304:	0041 4020 3f41 7f01 1408 4122 407f 4040     A. @A?...."A.@@@
    3314:	7f40 1c02 7f02 047f 1008 3e7f 4141 3e41     @..........>AAA>
    3324:	097f 0909 3e06 5141 5e21 097f 2919 2646     .....>AQ!^...)F&
    3334:	4949 3249 0103 017f 3f03 4040 3f40 201f     III2.....?@@@?. 
    3344:	2040 3f1f 3840 3f40 1463 1408 0363 7804     @ .?@8@?c...c..x
    3354:	0304 5961 4d49 0043 417f 4141 0402 1008     ..aYIMC..AAA....
    3364:	0020 4141 7f41 0204 0201 4004 4040 4040      .AAA......@@@@@
    3374:	0300 0807 2000 5454 4078 287f 4444 3838     ..... TTx@.(DD88
    3384:	4444 2844 4438 2844 387f 5454 1854 0800     DDD(8DD(.8TTT...
    3394:	097e 1802 a4a4 789c 087f 0404 0078 7d44     ~......x....x.D}
    33a4:	0040 4020 3d40 7f00 2810 0044 4100 407f     @. @@=...(D..A.@
    33b4:	7c00 7804 7804 087c 0404 3878 4444 3844     .|.x.x|...x8DDD8
    33c4:	18fc 2424 1818 2424 fc18 087c 0404 4808     ..$$..$$..|....H
    33d4:	5454 2454 0404 443f 3c24 4040 7c20 201c     TTT$..?D$<@@ |. 
    33e4:	2040 3c1c 3040 3c40 2844 2810 4c44 9090     @ .<@0@<D(.(DL..
    33f4:	7c90 6444 4c54 0044 3608 0041 0000 0077     .|DdTLD..6A...w.
    3404:	0000 3641 0008 0102 0402 3c02 2326 3c26     ..A6.......<&#&<

00003414 <frames>:
    3414:	6707 2018 0064 0000 2b94 0000 6705 1e1c     .g. d....+...g..
    3424:	0064 0000 2504 0000 5004 2020 0064 0000     d....%...P  d...
    3434:	1d04 0000 2804 2020 0064 0000 1d04 0000     .....(  d.......
    3444:	0004 2020 0064 0000 1d04 0000 1403 2222     ..  d.........""
    3454:	0064 0000 13fc 0000 2802 2824 0064 0000     d........($(d...
    3464:	08bc 0000 3c02 2824 0064 0000 08bc 0000     .....<$(d.......
    3474:	5002 2824 0064 0000 08bc 0000 6707 2018     .P$(d........g. 
    3484:	0064 0000 2b94 0000                         d....+..
